
build/program.elf:     file format elf32-littleriscv

Contents of section .text.init:
 0000 17010100 13010100 ef008000 6f000000  ............o...
Contents of section .text:
 0010 97110000 938181d4 17250000 1305058d  .........%......
 0020 17260000 1306868c 3306a640 93050000  .&......3..@....
 0030 ef00c026 17050000 13054516 ef004011  ...&......E...@.
 0040 ef00401b 03250100 93054100 13060000  ..@..%....A.....
 0050 ef008050 6f000011 67800000 37250000  ...Po...g...7%..
 0060 b7270000 1307c58e 9387c78e 638ce700  .'..........c...
 0070 37030000 13030300 63060300 1305c58e  7.......c.......
 0080 67000300 67800000 b7270000 37250000  g...g....'..7%..
 0090 9385c78e 9307c58e b385f540 93d52540  ...........@..%@
 00a0 93d7f501 b385b700 93d51540 638c0500  ...........@c...
 00b0 37030000 13030300 63060300 1305c58e  7.......c.......
 00c0 67000300 67800000 03c70171 63160704  g...g......qc...
 00d0 130101ff 23248100 23261100 13840700  ....#$..#&......
 00e0 eff0dff7 b7070000 93870700 638a0700  ............c...
 00f0 37250000 1305858e 97000000 e7000000  7%..............
 0100 93071000 2388f170 8320c100 03248100  ....#..p. ...$..
 0110 13010101 67800000 67800000 b7070000  ....g...g.......
 0120 93870700 63840702 37250000 130101ff  ....c...7%......
 0130 93854171 1305858e 23261100 97000000  ..Aq....#&......
 0140 e7000000 8320c100 13010101 6ff0dff3  ..... ......o...
 0150 93050500 93060000 13060000 13050000  ................
 0160 6f008021 130101ff 93050000 23248100  o..!........#$..
 0170 23261100 13040500 ef000028 b7270000  #&.........(.'..
 0180 03a5478e 8327c503 63840700 e7800700  ..G..'..c.......
 0190 13050400 ef004037 130101ff b7070000  ......@7........
 01a0 23248100 37040000 13870700 13040400  #$..7...........
 01b0 3304e440 23229100 23261100 13542440  3..@#"..#&...T$@
 01c0 93840700 631c0400 03248100 8320c100  ....c....$... ..
 01d0 83244100 13010101 6ff01fe8 1304f4ff  .$A.....o.......
 01e0 93172400 b387f400 83a70700 e7800700  ..$.............
 01f0 6ff05ffd 130101ff b7070000 23248100  o._.........#$..
 0200 37040000 13870700 13040400 3304e440  7...........3..@
 0210 23229100 23202101 23261100 13542440  #"..# !.#&...T$@
 0220 93040000 13890700 63928404 eff0dfe2  ........c.......
 0230 b7070000 37040000 13870700 13040400  ....7...........
 0240 3304e440 13542440 93040000 13890700  3..@.T$@........
 0250 639a8402 8320c100 03248100 83244100  c.... ...$...$A.
 0260 03290100 13010101 67800000 93972400  .)......g.....$.
 0270 b307f900 83a70700 93841400 e7800700  ................
 0280 6ff09ffa 93972400 b307f900 83a70700  o.....$.........
 0290 93841400 e7800700 6ff09ffb 1303f000  ........o.......
 02a0 13070500 637ec302 9377f700 6390070a  ....c~...w..c...
 02b0 63920508 937606ff 1376f600 b386e600  c....v...v......
 02c0 2320b700 2322b700 2324b700 2326b700  # ..#"..#$..#&..
 02d0 13070701 e366d7fe 63140600 67800000  .....f..c...g...
 02e0 b306c340 93962600 97020000 b3865600  ...@..&.......V.
 02f0 6780c600 2307b700 a306b700 2306b700  g...#.......#...
 0300 a305b700 2305b700 a304b700 2304b700  ....#.......#...
 0310 a303b700 2303b700 a302b700 2302b700  ....#.......#...
 0320 a301b700 2301b700 a300b700 2300b700  ....#.......#...
 0330 67800000 93f5f50f 93968500 b3e5d500  g...............
 0340 93960501 b3e5d500 6ff0dff6 93962700  ........o.....'.
 0350 97020000 b3865600 93820000 e78006fa  ......V.........
 0360 93800200 938707ff 3307f740 3306f600  ........3..@3...
 0370 e378c3f6 6ff0dff3 b7270000 03a7478e  .x..o....'....G.
 0380 13030500 83278714 63960700 9307c714  .....'..c.......
 0390 2324f714 03a74700 1308f001 1305f0ff  #$....G.........
 03a0 634ae804 93182700 630c0302 33851701  cJ....'.c...3...
 03b0 2324c508 03a88718 13061000 3316e600  #$..........3...
 03c0 3368c800 23a40719 2324d510 93062000  3h..#...#$.... .
 03d0 6318d300 83a6c718 33e6c600 23a6c718  c.......3...#...
 03e0 13071700 23a2e700 b3871701 23a4b700  ....#.......#...
 03f0 13050000 67800000 130101fd b7270000  ....g........'..
 0400 232e3101 83a9478e 232c4101 232a5101  #.1...G.#,A.#*Q.
 0410 23286101 23261102 23248102 23229102  #(a.#&..#$..#"..
 0420 23202103 23267101 930a0500 138a0500  # !.#&q.........
 0430 130b1000 83a48914 638c0400 03a44400  ........c.....D.
 0440 1309f4ff 13142400 33848400 63580902  ......$.3...cX..
 0450 8320c102 03248102 83244102 03290102  . ...$...$A..)..
 0460 8329c101 032a8101 832a4101 032b0101  .)...*...*A..+..
 0470 832bc100 13010103 67800000 630c0a00  .+......g...c...
 0480 83274410 63884701 1309f9ff 1304c4ff  .'D.c.G.........
 0490 6ff0dffb 03a74400 83274400 1307f7ff  o.....D..'D.....
 04a0 631c2703 23a22401 e38007fe 83a68418  c.'.#.$.........
 04b0 33172b01 83ab4400 b376d700 63920602  3.+...D..v..c...
 04c0 e7800700 83a74400 e39677f7 83a78914  ......D...w.....
 04d0 e38c97fa 6ff01ff6 23220400 6ff0dffc  ....o...#"..o...
 04e0 83a6c418 83254408 3377d700 63180700  .....%D.3w..c...
 04f0 13850a00 e7800700 6ff0dffc 13850500  ........o.......
 0500 e7800700 6ff01ffc 93050000 13060000  ....o...........
 0510 93060000 13070000 93070000 9308d005  ................
 0520 73000000 63520502 130101ff 23248100  s...cR......#$..
 0530 13040500 23261100 33048040 ef000001  ....#&..3..@....
 0540 23208500 6f000000 6f000000 b7270000  # ..o...o....'..
 0550 03a5478b 67800000                    ..G.g...        
Contents of section .text.startup:
 0558 130101fd b7260000 23261102 23248102  .....&..#&..#$..
 0568 23229102 23202103 232e3101 232c4101  #"..# !.#.1.#,A.
 0578 232a5101 23286101 23267101 23248101  #*Q.#(a.#&q.#$..
 0588 23229101 93070000 37051011 b7051411  #"......7.......
 0598 13060005 938606e0 13070000 3368f700  ............3h..
 05a8 23200501 23a00500 13071700 e318c7fe  # ..#...........
 05b8 93870708 e392d7fe 9388016c 03a78801  ...........l....
 05c8 b7070c11 23a0e700 1383016e 83268301  ....#......n.&..
 05d8 b7071c11 1307d001 23a0d700 23a0016c  ........#...#..l
 05e8 23a2e800 93064000 23a4d800 93078000  #.....@.#.......
 05f8 23a8f800 93071000 23aaf800 23aef800  #.......#...#...
 0608 1306f004 23a0c16e 2322e300 2324d300  ....#..n#"..#$..
 0618 2328d300 93062000 232ad300 232ed300  #(.... .#*..#...
 0628 93067002 23a0d170 93840170 23a2e400  ..p.#..p...p#...
 0638 1307f0ff 23a6e400 23ac0800 232c0300  ....#...#...#,..
 0648 b7200000 23a4f400 930f2000 130e1000  . ..#..... .....
 0658 370f1811 b70e0011 37071011 b7061411  7.......7.......
 0668 930af00f 1305f00f 938000e0 130a4000  ..............@.
 0678 1304b003 13097003 83250f00 83a70e00  ......p..%......
 0688 03a6c801 e308c635 03a6c801 13081000  .......5........
 0698 e30af633 83a74801 e380f52c 83a70801  ...3..H....,....
 06a8 e38af534 03a8016c 83a74800 83a54800  ...4...l..H...H.
 06b8 03a68800 b385c500 93851500 638eb700  ............c...
 06c8 13967700 33660601 2320c700 23a0a600  ..w.3f..# ..#...
 06d8 93871700 e396b7fe 83250f00 83a70e00  .........%......
 06e8 0326c301 e300c631 0326c301 13081000  .&.....1.&......
 06f8 e302f62d 83274301 e382f520 83270301  ...-.'C.... .'..
 0708 e382f534 03a8016e 83274300 83254300  ...4...n.'C..%C.
 0718 03268300 b385c500 93851500 638eb700  .&..........c...
 0728 13967700 33660601 2320c700 23a0a600  ..w.3f..# ..#...
 0738 93871700 e396b7fe b7850100 9385056a  ...............j
 0748 83270f00 03a60e00 03a8c801 e304c807  .'..............
 0758 03a8c801 130b1000 e30af807 03a64801  ..............H.
 0768 6388c77c 03a60801 e38ac706 03ab016c  c..|...........l
 0778 83a74800 03a84800 03a68800 3308c800  ..H...H.....3...
 0788 13081800 638e0701 13967700 33666601  ....c.....w.3ff.
 0798 2320c700 23a0a600 93871700 e39607ff  # ..#...........
 07a8 83270f00 03a60e00 0328c301 6300c87f  .'.......(..c...
 07b8 0328c301 130b1000 6306f87f 03264301  .(......c....&C.
 07c8 638ac770 03260301 e382c706 03ab016e  c..p.&.........n
 07d8 83274300 03284300 03268300 3308c800  .'C..(C..&..3...
 07e8 13081800 638e0701 13967700 33666601  ....c.....w.3ff.
 07f8 2320c700 23a0a600 93871700 e39607ff  # ..#...........
 0808 9385f5ff e39e05f2 03a60170 83a74400  ...........p..D.
 0818 93977700 b3e7c700 2320f700 23a00600  ..w.....# ..#...
 0828 83a78400 03a60170 b387c700 23a0f170  .......p....#..p
 0838 83a7c400 03a64400 b387c700 23a2f400  ......D.....#...
 0848 83a70170 e3c00738 03a60170 9307f004  ...p...8...p....
 0858 b387c740 e3c8072c 83a74400 63c60700  ...@...,..D.c...
 0868 83a74400 6358f400 83a7c400 b307f040  ..D.cX.........@
 0878 23a6f400 03a60170 83a74400 93977700  #......p..D...w.
 0888 b3e7c700 2320f700 23a05601 03a60170  ....# ..#.V....p
 0898 83a7016c 93871700 e3c2c700 03a60170  ...l...........p
 08a8 83a7016c 9387f7ff 634af67e 03a64400  ...l....cJ.~..D.
 08b8 83a74800 93874700 63c2c77e 03a64400  ..H...G.c..~..D.
 08c8 83a74800 9387f7ff 634af67c 03a60170  ..H.....cJ.|...p
 08d8 83a7016e 93871700 63c2c702 03a60170  ...n....c......p
 08e8 83a7016e 9387f7ff 634af600 03a64400  ...n....cJ....D.
 08f8 83274300 93874700 e3d6c730 83a74800  .'C...G....0..H.
 0908 03a64400 93874700 b387c740 6392077e  ..D...G....@c..~
 0918 93073000 23a6f400 83a78400 b307f040  ..0.#..........@
 0928 23a4f400 03a68801 93075000 6308f600  #.........P.c...
 0938 03268301 93075000 e310f6d4 13050005  .&....P.........
 0948 93070000 33e6f500 2320c700 23a00600  ....3...# ..#...
 0958 93871700 e398a7fe 93850508 e39215fe  ................
 0968 93072000 6386f701 93071000 e39ef7ff  .. .c...........
 0978 b7170000 b7061011 938bb7b9 37071411  ............7...
 0988 9305f00f 1306f00f 138bb7c1 938ab7c9  ................
 0998 138ab7d1 9389b7d9 1389d7b9 9384d7c1  ................
 09a8 1384d7c9 9380c7b9 9383c7c9 9382f7b9  ................
 09b8 938ff7c1 138ff7c9 938ef7d1 138ef7d9  ................
 09c8 138307da 138817da 138537ba 23a07601  ..........7.#.v.
 09d8 2320c700 23a06601 2320c700 23a05601  # ..#.f.# ..#.V.
 09e8 2320c700 23a04601 2320c700 23a03601  # ..#.F.# ..#.6.
 09f8 2320c700 23a02601 2320c700 23a09600  # ..#.&.# ..#...
 0a08 2320c700 23a08600 2320c700 23a01600  # ..#...# ..#...
 0a18 2320c700 23a07600 2320c700 23a05600  # ..#.v.# ..#.V.
 0a28 2320c700 23a0f601 2320c700 23a0e601  # ..#...# ..#...
 0a38 2320c700 23a0d601 2320c700 23a0c601  # ..#...# ..#...
 0a48 2320c700 23a06600 2320c700 23a00601  # ..#.f.# ..#...
 0a58 2320c700 23a0a600 2320c700 138c37c2  # ..#...# ....7.
 0a68 23a08601 2320c700 138c37ca 23a08601  #...# ....7.#...
 0a78 2320c700 138c37d2 23a08601 2320c700  # ....7.#...# ..
 0a88 138c37da 23a08601 2320c700 138c57ba  ..7.#...# ....W.
 0a98 23a08601 2320c700 138c57c2 23a08601  #...# ....W.#...
 0aa8 2320c700 138c57ca 23a08601 2320c700  # ....W.#...# ..
 0ab8 138c57d2 23a08601 2320c700 138c57da  ..W.#...# ....W.
 0ac8 23a08601 2320c700 138c47ba 23a08601  #...# ....G.#...
 0ad8 2320c700 138c47ca 23a08601 2320c700  # ....G.#...# ..
 0ae8 138c77ba 23a08601 2320c700 138c77c2  ..w.#...# ....w.
 0af8 23a08601 2320c700 138c97ba 23a08601  #...# ......#...
 0b08 2320c700 138c97c2 23a08601 138c87ca  # ......#.......
 0b18 2320c700 23a08601 2320c700 138c87d2  # ..#...# ......
 0b28 23a08601 2320c700 138c87da 23a08601  #...# ......#...
 0b38 2320c700 138cb7ba 23a08601 2320c700  # ......#...# ..
 0b48 138cb7c2 23a08601 2320c700 138cb7ca  ....#...# ......
 0b58 23a08601 2320c700 138cb7d2 23a08601  #...# ......#...
 0b68 2320c700 138cb7da 23a08601 2320c700  # ......#...# ..
 0b78 138cc7ba 23a08601 2320c700 138cd7ba  ....#...# ......
 0b88 23a08601 2320c700 138cc7da 23a08601  #...# ......#...
 0b98 2320c700 138cd7da 23a08601 2320c700  # ......#...# ..
 0ba8 138cc7ca 23a08601 2320c700 138cf7ba  ....#...# ......
 0bb8 23a08601 2320c700 138cf7c2 23a08601  #...# ......#...
 0bc8 2320c700 138cf7ca 23a08601 2320c700  # ......#...# ..
 0bd8 138cf7d2 23a08601 2320c700 138cf7da  ....#...# ......
 0be8 23a08601 2320c700 138c17bb 23a08601  #...# ......#...
 0bf8 2320c700 138c17c3 23a08601 2320c700  # ......#...# ..
 0c08 138c17d3 23a08601 2320c700 138c17db  ....#...# ......
 0c18 23a08601 2320c700 138c07bb 23a08601  #...# ......#...
 0c28 2320c700 138c07cb 23a08601 2320c700  # ......#...# ..
 0c38 138ce7f9 23a08601 2320c700 138ce701  ....#...# ......
 0c48 23a08601 2320c700 138ce709 23a08601  #...# ......#...
 0c58 2320c700 138ce711 23a08601 2320c700  # ......#...# ..
 0c68 138c27fa 23a08601 2320c700 138c2702  ..'.#...# ....'.
 0c78 23a08601 2320c700 138c270a 23a08601  #...# ....'.#...
 0c88 2320c700 138c2712 23a08601 2320c700  # ....'.#...# ..
 0c98 138c070a 23a08601 138c0712 2320c700  ....#.......# ..
 0ca8 23a08601 2320c700 138cf719 23a08601  #...# ......#...
 0cb8 2320c700 138c171a 23a08601 2320c700  # ......#...# ..
 0cc8 138c47fa 23a08601 2320c700 138c57fa  ..G.#...# ....W.
 0cd8 23a08601 2320c700 138c67fa 23a08601  #...# ....g.#...
 0ce8 2320c700 138c471a 23a08601 2320c700  # ....G.#...# ..
 0cf8 138c571a 23a08601 2320c700 138c671a  ..W.#...# ....g.
 0d08 23a08601 2320c700 138c5702 23a08601  #...# ....W.#...
 0d18 2320c700 138c570a 23a08601 2320c700  # ....W.#...# ..
 0d28 138c5712 23a08601 2320c700 138c87fa  ..W.#...# ......
 0d38 23a08601 2320c700 138c8702 23a08601  #...# ......#...
 0d48 2320c700 138c870a 23a08601 2320c700  # ......#...# ..
 0d58 138c8712 23a08601 2320c700 138c871a  ....#...# ......
 0d68 23a08601 2320c700 138cb7fa 23a08601  #...# ......#...
 0d78 2320c700 138cb702 23a08601 2320c700  # ......#...# ..
 0d88 138cb70a 23a08601 2320c700 138cb712  ....#...# ......
 0d98 23a08601 2320c700 138cb71a 23a08601  #...# ......#...
 0da8 2320c700 138c970a 23a08601 2320c700  # ......#...# ..
 0db8 138ca712 23a08601 2320c700 138cd7fa  ....#...# ......
 0dc8 23a08601 2320c700 138ce7fa 23a08601  #...# ......#...
 0dd8 2320c700 138cf7fa 23a08601 2320c700  # ......#...# ..
 0de8 138cd70a 23a08601 2320c700 138ce70a  ....#...# ......
 0df8 23a08601 2320c700 138cf70a 23a08601  #...# ......#...
 0e08 2320c700 138cd71a 23a08601 2320c700  # ......#...# ..
 0e18 138ce71a 23a08601 2320c700 138cf71a  ....#...# ......
 0e28 23a08601 138cd702 2320c700 23a08601  #.......# ..#...
 0e38 2320c700 138cf712 23a08601 2320c700  # ......#...# ..
 0e48 83ac8801 130c5000 63808c47 138c47bb  ......P.c..G..G.
 0e58 23a08601 2320b700 138c57bb 23a08601  #...# ....W.#...
 0e68 2320b700 138c67bb 23a08601 2320b700  # ....g.#...# ..
 0e78 138c47cb 23a08601 2320b700 138c57cb  ..G.#...# ....W.
 0e88 23a08601 2320b700 138c67cb 23a08601  #...# ....g.#...
 0e98 2320b700 138c47db 23a08601 2320b700  # ....G.#...# ..
 0ea8 138c57db 23a08601 2320b700 138c67db  ..W.#...# ....g.
 0eb8 23a08601 2320b700 138c67c3 23a08601  #...# ....g.#...
 0ec8 2320b700 138c47d3 23a08601 2320b700  # ....G.#...# ..
 0ed8 6ff0dfaf 83ab016e 83274300 03284300  o......n.'C..(C.
 0ee8 03268300 3308c800 13081800 638e0701  .&..3.......c...
 0ef8 13967700 33667601 2320c700 23a00600  ..w.3fv.# ..#...
 0f08 93871700 e39607ff 83274300 03268300  .........'C..&..
 0f18 b387c700 b3876701 b307f440 63c00716  ......g....@c...
 0f28 83274300 330bfb00 23226301 6ff01f8a  .'C.3...#"c.o...
 0f38 83ab016c 83a74800 03a84800 03a68800  ...l..H...H.....
 0f48 3308c800 13081800 638e0701 13967700  3.......c.....w.
 0f58 33667601 2320c700 23a00600 93871700  3fv.# ..#.......
 0f68 e39607ff 83a74800 03a68800 b387c700  ......H.........
 0f78 b3876701 b307f440 63c60710 83a74800  ..g....@c.....H.
 0f88 330bfb00 23a26801 6ff04ffe 1358f640  3...#.h.o.O..X.@
 0f98 130b4000 e304c883 0328c301 130b1000  ..@......(......
 0fa8 e31ef881 13761600 e30a0680 130b4000  .....v........@.
 0fb8 6ff0df80 1358f640 130b4000 6300c8fb  o....X.@..@.c...
 0fc8 03a8c801 130b1000 631af8f9 13761600  ........c....v..
 0fd8 630606f8 130b4000 6ff04ff8 83ab016c  c.....@.o.O....l
 0fe8 83a74800 03a84800 03a68800 3308c800  ..H...H.....3...
 0ff8 13081800 638e0701 13967700 33667601  ....c.....w.3fv.
 1008 2320c700 23a00600 93871700 e39607ff  # ..#...........
 1018 83a74800 b3876741 63ce0706 83a74800  ..H...gAc.....H.
 1028 338b6741 23a26801 6ff04ff4 83ab016e  3.gA#.h.o.O....n
 1038 83274300 03284300 03268300 3308c800  .'C..(C..&..3...
 1048 13081800 638e0701 13967700 33667601  ....c.....w.3fv.
 1058 2320c700 23a00600 93871700 e39607ff  # ..#...........
 1068 83274300 b3876741 63c20702 83274300  .'C...gAc....'C.
 1078 338b6741 23226301 6ff04ff5 23222301  3.gA#"c.o.O.#"#.
 1088 6ff0cff4 23a22801 6ff04fee 23220300  o...#.(.o.O.#"..
 1098 6ff0cff3 23a20800 6ff04fed 03a60170  o...#...o.O....p
 10a8 83a7016e 93871700 e3cec786 03a60170  ...n...........p
 10b8 83a7016e 9387f7ff e346f686 03a64400  ...n.....F....D.
 10c8 83274300 93874700 e3cec784 03a64400  .'C...G.......D.
 10d8 83274300 9387f7ff e346f684 83274300  .'C......F...'C.
 10e8 03a64400 93874700 b387c740 e3820782  ..D...G....@....
 10f8 6392c71b 23a6f401 6ff01f82 03ab016e  c...#...o......n
 1108 83274300 03264300 83258300 3306b600  .'C..&C..%..3...
 1118 13061600 638ec700 93957700 b3e56501  ....c.....w...e.
 1128 2320b700 23a00600 93871700 e316f6fe  # ..#...........
 1138 83274300 03268300 b387c700 b3870701  .'C..&..........
 1148 b307f440 63cc071c 83274300 3308f800  ...@c....'C.3...
 1158 23220301 6ff00fdb 03ab016c 83a74800  #"..o......l..H.
 1168 03a64800 83a58800 3306b600 13061600  ..H.....3.......
 1178 638ec700 93957700 b3e56501 2320b700  c.....w...e.# ..
 1188 23a00600 93871700 e316f6fe 83a74800  #.............H.
 1198 03a68800 b387c700 b3870701 b307f440  ...............@
 11a8 63ca0716 83a74800 3308f800 23a20801  c.....H.3...#...
 11b8 6ff04fcf 93f71700 638e07d2 13084000  o.O.....c.....@.
 11c8 6ff04fd3 93f71700 638607cc 13084000  o.O.....c.....@.
 11d8 6ff04fcc 13d6f740 13084000 6316c6cb  o.O....@..@.c...
 11e8 6ff04fcb 13d6f740 13084000 631ec6cf  o.O....@..@.c...
 11f8 6ff04fd0 03ab016c 03a64800 83a74800  o.O....l..H...H.
 1208 83a58800 b387b700 93871700 630ef600  ............c...
 1218 93157600 b3e56501 2320b700 23a00600  ..v...e.# ..#...
 1228 13061600 e316f6fe 83a74800 b3870741  ..........H....A
 1238 63ce070c 83a74800 33880741 23a20801  c.....H.3..A#...
 1248 6ff04fc6 03ab016e 03264300 83274300  o.O....n.&C..'C.
 1258 83258300 b387b700 93871700 630ef600  .%..........c...
 1268 93157600 b3e56501 2320b700 23a00600  ..v...e.# ..#...
 1278 13061600 e316f6fe 83274300 b3870741  .........'C....A
 1288 63ce0716 83274300 33880741 23220301  c....'C.3..A#"..
 1298 6ff04fc7 639af705 83a7c400 b307f040  o.O.c..........@
 12a8 23a6f400 6ff04fe7 138c47bb 23a08601  #...o.O...G.#...
 12b8 2320b700 138c47c3 23a08601 2320b700  # ....G.#...# ..
 12c8 138c47cb 23a08601 2320b700 138c47d3  ..G.#...# ....G.
 12d8 23a08601 2320b700 138c47db 23a08601  #...# ....G.#...
 12e8 2320b700 6ff08fee 13063000 6398c700  # ..o.....0.c...
 12f8 9307e0ff 23a6f400 6ff00fe2 639e47e1  ....#...o...c.G.
 1308 9307d0ff 23a6f400 6ff00fe1 23a20800  ....#...o...#...
 1318 6ff04fb9 23a22801 6ff0cfb8 23222301  o.O.#.(.o...#"#.
 1328 6ff04fbe 83a78801 13080000 130b0005  o.O.............
 1338 93871700 23acf800 93070000 3366f800  ....#.......3f..
 1348 2320c700 23a00600 93871700 e39867ff  # ..#.........g.
 1358 13080808 e31218fe 03a68801 b7070c11  ................
 1368 23a0c700 03288301 37061c11 9307d001  #....(..7.......
 1378 23200601 23a0016c 23a2f800 23a44801  # ..#..l#...#.H.
 1388 13068000 23a8c800 23aac801 23aec801  ....#...#...#...
 1398 1306f004 23a0c16e 2322f300 23244301  ....#..n#"..#$C.
 13a8 23284301 232af301 232ef301 13067002  #(C.#*..#.....p.
 13b8 23a0c170 23a2f400 9307f0ff 23a6f400  #..p#.......#...
 13c8 6ff04fd6 83278301 13080000 130b0005  o.O..'..........
 13d8 93871700 232cf300 93070000 3366f800  ....#,......3f..
 13e8 2320c700 23a00600 93871700 e39867ff  # ..#.........g.
 13f8 13080808 e31218fe 6ff01ff6 23220300  ........o...#"..
 1408 6ff04fb0 83a74400 83274300 6ff00fcf  o.O...D..'C.o...
Contents of section .data:
 1418 00000000 00000000 00000000 00000000  ................
 1428 00000000 00000000 00000000 00000000  ................
 1438 00000000 00000000 00000000 00000000  ................
 1448 00000000 00000000 00000000 00000000  ................
 1458 00000000 00000000 00000000 00000000  ................
 1468 00000000 00000000 00000000 00000000  ................
 1478 00000000 00000000 00000000 00000000  ................
 1488 00000000 74170000 dc170000 44180000  ....t.......D...
 1498 00000000 00000000 00000000 00000000  ................
 14a8 00000000 00000000 00000000 00000000  ................
 14b8 00000000 00000000 00000000 00000000  ................
 14c8 00000000 00000000 00000000 00000000  ................
 14d8 00000000 00000000 00000000 00000000  ................
 14e8 00000000 00000000 00000000 00000000  ................
 14f8 00000000 00000000 00000000 00000000  ................
 1508 00000000 00000000 00000000 00000000  ................
 1518 00000000 00000000 00000000 00000000  ................
 1528 00000000 00000000 01000000 00000000  ................
 1538 0e33cdab 34126de6 ecde0500 0b000000  .3..4.m.........
 1548 00000000 00000000 00000000 00000000  ................
 1558 00000000 00000000 00000000 00000000  ................
 1568 00000000 00000000 00000000 00000000  ................
 1578 00000000 00000000 00000000 00000000  ................
 1588 00000000 00000000 00000000 00000000  ................
 1598 00000000 00000000 00000000 00000000  ................
 15a8 00000000 00000000 00000000 00000000  ................
 15b8 00000000 00000000 00000000 00000000  ................
 15c8 00000000 00000000 00000000 00000000  ................
 15d8 00000000 00000000 00000000 00000000  ................
 15e8 00000000 00000000 00000000 00000000  ................
 15f8 00000000 00000000 00000000 00000000  ................
 1608 00000000 00000000 00000000 00000000  ................
 1618 00000000 00000000 00000000 00000000  ................
 1628 00000000 00000000 00000000 00000000  ................
 1638 00000000 00000000 00000000 00000000  ................
 1648 00000000 00000000 00000000 00000000  ................
 1658 00000000 00000000 00000000 00000000  ................
 1668 00000000 00000000 00000000 00000000  ................
 1678 00000000 00000000 00000000 00000000  ................
 1688 00000000 00000000 00000000 00000000  ................
 1698 00000000 00000000 00000000 00000000  ................
 16a8 00000000 00000000 00000000 00000000  ................
 16b8 00000000 00000000 00000000 00000000  ................
 16c8 00000000 00000000 00000000 00000000  ................
 16d8 00000000 00000000 00000000 00000000  ................
 16e8 00000000 00000000 00000000 00000000  ................
 16f8 00000000 00000000 00000000 00000000  ................
 1708 00000000 00000000 00000000 00000000  ................
 1718 00000000 00000000 00000000 00000000  ................
 1728 00000000 00000000 00000000 00000000  ................
 1738 00000000 00000000 00000000 00000000  ................
 1748 00000000 00000000 00000000 00000000  ................
 1758 00000000 00000000 00000000 00000000  ................
 1768 00000000 00000000 00000000 00000000  ................
 1778 00000000 00000000 00000000 00000000  ................
 1788 00000000 00000000 00000000 00000000  ................
 1798 00000000 00000000 00000000 00000000  ................
 17a8 00000000 00000000 00000000 00000000  ................
 17b8 00000000 00000000 00000000 00000000  ................
 17c8 00000000 00000000 00000000 00000000  ................
 17d8 00000000 00000000 00000000 00000000  ................
 17e8 00000000 00000000 00000000 00000000  ................
 17f8 00000000 00000000 00000000 00000000  ................
 1808 00000000 00000000 00000000 00000000  ................
 1818 00000000 00000000 00000000 00000000  ................
 1828 00000000 00000000 00000000 00000000  ................
 1838 00000000 00000000 00000000 00000000  ................
 1848 00000000 00000000 00000000 00000000  ................
 1858 00000000 00000000 00000000 00000000  ................
 1868 00000000 00000000 00000000 00000000  ................
 1878 00000000 00000000 00000000 00000000  ................
 1888 00000000 00000000 00000000 00000000  ................
 1898 00000000 00000000 00000000 00000000  ................
 18a8 00000000 00000000 00000000 88140000  ................
 18b8 a0860100 ff000000 25000000 ff000000  ........%.......
 18c8 00000000 00000011 00001c11 00000c11  ................
 18d8 00001811 00001411 00001011 88140000  ................
Contents of section .eh_frame:
 18e8 00000000                             ....            
Contents of section .fini_array:
 18ec c8000000                             ....            
Contents of section .init_array:
 18f0 1c010000                             ....            
Contents of section .comment:
 0000 4743433a 2028474e 55292038 2e322e30  GCC: (GNU) 8.2.0
 0010 00                                   .               
Contents of section .debug_line:
 0000 41000000 02002100 00000101 fb0e0d00  A.....!.........
 0010 01010101 00000001 00000173 72630000  ...........src..
 0020 696e6974 2e730001 00000000 05020000  init.s..........
 0030 00001803 02090800 01030509 04000109  ................
 0040 04000001 01242e00 000200cc 00000001  .....$..........
 0050 01fb0e0d 00010101 01000000 01000001  ................
 0060 73726300 2f686f6d 652f7374 7564656e  src./home/studen
 0070 742f6c6f 63616c2f 72697363 7633322d  t/local/riscv32-
 0080 756e6b6e 6f776e2d 656c662f 696e636c  unknown-elf/incl
 0090 7564652f 73797300 2f686f6d 652f7374  ude/sys./home/st
 00a0 7564656e 742f6c6f 63616c2f 6c69622f  udent/local/lib/
 00b0 6763632f 72697363 7633322d 756e6b6e  gcc/riscv32-unkn
 00c0 6f776e2d 656c662f 382e322e 302f696e  own-elf/8.2.0/in
 00d0 636c7564 6500006d 61696e2e 63000100  clude..main.c...
 00e0 006c6f63 6b2e6800 0200005f 74797065  .lock.h...._type
 00f0 732e6800 02000073 74646465 662e6800  s.h....stddef.h.
 0100 03000072 65656e74 2e680002 0000756e  ...reent.h....un
 0110 69737464 2e680002 00000005 0d000502  istd.h..........
 0120 58050000 03ec0001 05020303 09000001  X...............
 0130 03610900 000103d2 02090000 01050703  .a..............
 0140 00090000 01050d06 03ca7d09 00000105  ..........}.....
 0150 0203b602 09040001 050d03ca 7d090400  ............}...
 0160 01051003 bd02092c 0001050b 03000904  .......,........
 0170 0001050c 03010904 00010502 03690904  .............i..
 0180 0001030f 09040001 05100307 09040001  ................
 0190 05030603 6b090400 01050203 15090000  ....k...........
 01a0 01051606 03000900 0001050b 03000904  ................
 01b0 00010502 06030109 04000105 0c060300  ................
 01c0 09000001 05140369 09040001 05020300  .......i........
 01d0 09040001 030f0908 00010603 b07d0904  .............}..
 01e0 00010517 06030009 00000103 01090800  ................
 01f0 01050e03 7f090000 01050206 03010908  ................
 0200 00010517 06030009 00000105 0e030009  ................
 0210 08000105 0c030309 04000105 0e037d09  ..............}.
 0220 04000105 02060302 09040001 050c0603  ................
 0230 00090000 01050206 03010904 0001050c  ................
 0240 06030009 00000105 02060301 09040001  ................
 0250 050c0603 00090000 01050206 03010908  ................
 0260 00010511 06030009 00000105 02060301  ................
 0270 09080001 05130603 00090000 01050206  ................
 0280 03010908 0001050d 06030009 00000105  ................
 0290 02060304 09040001 050c0603 00090000  ................
 02a0 01050206 03010908 0001050c 06030009  ................
 02b0 00000105 02060301 09040001 050c0603  ................
 02c0 00090000 01050206 03010904 00010511  ................
 02d0 06030009 00000105 02060301 09040001  ................
 02e0 05130603 00090000 01050206 03010908  ................
 02f0 0001050d 06030009 00000105 02060303  ................
 0300 09040001 05090603 00090000 01050206  ................
 0310 03010908 00010509 06030009 00000105  ................
 0320 02060301 09080001 050a0603 00090000  ................
 0330 01050206 03080908 00010510 06030009  ................
 0340 00000105 02060301 09040001 05100603  ................
 0350 00090000 01050206 03010904 00010603  ................
 0360 b0020900 0001050a 03d07d09 04000105  ..........}.....
 0370 02060302 09040001 050a0603 1b090000  ................
 0380 01050603 17090800 01030109 04000105  ................
 0390 0b038202 09040001 050c0301 09040001  ................
 03a0 05020378 090c0001 0603d57d 09040001  ...x.......}....
 03b0 05030301 09000001 05080603 37090000  ............7...
 03c0 01050903 0a090400 01050e03 05090400  ................
 03d0 01050406 03bc7f09 04000105 02032c09  ..............,.
 03e0 00000105 06060300 09000001 05020603  ................
 03f0 01090400 01050606 03000900 00010502  ................
 0400 06030109 04000103 03090000 01050c06  ................
 0410 03000900 00010504 03000904 00010507  ................
 0420 06030309 04000105 11060300 09000001  ................
 0430 0506037a 09040001 05090306 09040001  ...z............
 0440 05020603 06090400 01051606 03000900  ................
 0450 00010504 03000904 00010507 06031209  ................
 0460 04000105 1b060300 09000001 05090300  ................
 0470 09040001 05020603 0e090400 01053106  ..............1.
 0480 03000908 0001053d 03000904 00010502  .......=........
 0490 03000904 00010603 c6010904 00010301  ................
 04a0 09000001 05050603 7f090000 01050203  ................
 04b0 01090400 01050306 03010904 00010502  ................
 04c0 030d0900 00010510 06030009 00000105  ................
 04d0 16030009 04000105 0b030009 04000105  ................
 04e0 02060301 09040001 050c0603 00090000  ................
 04f0 01051403 71090400 01050203 00090400  ....q...........
 0500 01050406 03e07d09 04000105 02032b09  ......}.......+.
 0510 00000105 06060300 09000001 05020603  ................
 0520 01090400 01050606 03000900 00010502  ................
 0530 06030109 04000103 03090000 01050c06  ................
 0540 03000900 00010504 03000904 00010507  ................
 0550 06030309 04000105 11060300 09000001  ................
 0560 0506037a 09040001 05090306 09040001  ...z............
 0570 05020603 06090400 01051606 03000900  ................
 0580 00010504 03000904 00010507 06031209  ................
 0590 04000105 1b060300 09000001 05090300  ................
 05a0 09040001 05020603 0e090400 01053106  ..............1.
 05b0 03000908 0001053d 03000904 00010502  .......=........
 05c0 03000904 00010603 c6010904 00010301  ................
 05d0 09000001 05050603 7f090000 01050203  ................
 05e0 01090400 01050306 03010904 00010502  ................
 05f0 030d0900 00010510 06030009 00000105  ................
 0600 16030009 04000105 0b030009 04000105  ................
 0610 02060301 09040001 050c0603 00090000  ................
 0620 01051403 71090400 01050203 00090400  ....q...........
 0630 01050803 947e0904 00010505 06035209  .....~........R.
 0640 08000105 02032509 00000105 06060300  ......%.........
 0650 09000001 05020603 01090400 01050606  ................
 0660 03000900 00010502 06030109 04000103  ................
 0670 03090000 01050c06 03000900 00010504  ................
 0680 03000904 00010507 06030309 04000105  ................
 0690 11060300 09000001 0506037a 09040001  ...........z....
 06a0 05090306 09040001 05020603 06090400  ................
 06b0 01051606 03000900 00010504 03000904  ................
 06c0 00010507 06031209 04000105 1b060300  ................
 06d0 09000001 05090300 09040001 05020603  ................
 06e0 0e090400 01053106 03000908 0001053d  ......1........=
 06f0 03000904 00010502 03000904 00010603  ................
 0700 c6010904 00010301 09000001 05050603  ................
 0710 7f090000 01050203 01090400 01050306  ................
 0720 03010904 00010502 030d0900 00010510  ................
 0730 06030009 00000105 16030009 04000105  ................
 0740 0b030009 04000105 02060301 09040001  ................
 0750 050c0603 00090000 01051403 71090400  ............q...
 0760 01050203 00090400 01050506 03e77d09  ..............}.
 0770 04000105 02032409 00000105 06060300  ......$.........
 0780 09000001 05020603 01090400 01050606  ................
 0790 03000900 00010502 06030109 04000103  ................
 07a0 03090000 01050c06 03000900 00010504  ................
 07b0 03000904 00010507 06030309 04000105  ................
 07c0 11060300 09000001 0506037a 09040001  ...........z....
 07d0 05090306 09040001 05020603 06090400  ................
 07e0 01051606 03000900 00010504 03000904  ................
 07f0 00010507 06031209 04000105 1b060300  ................
 0800 09000001 05090300 09040001 05020603  ................
 0810 0e090400 01053106 03000908 0001053d  ......1........=
 0820 03000904 00010502 03000904 00010603  ................
 0830 c6010904 00010301 09000001 05050603  ................
 0840 7f090000 01050203 01090400 01050306  ................
 0850 03010904 00010502 030d0900 00010510  ................
 0860 06030009 00000105 16030009 04000105  ................
 0870 0b030009 04000105 02060301 09040001  ................
 0880 050c0603 00090000 01051403 71090400  ............q...
 0890 01050203 00090400 01050506 03e97d09  ..............}.
 08a0 04000105 0a06037a 09040001 05040603  .......z........
 08b0 09090400 01050203 dc000900 000103c6  ................
 08c0 01090800 01051006 03000900 00010516  ................
 08d0 03000904 0001050b 03000904 00010502  ................
 08e0 06030109 04000105 0c060300 09000001  ................
 08f0 05020603 ba7e0904 0001050b 06030009  .....~..........
 0900 00000105 07030009 04000105 02060301  ................
 0910 090c0001 050b0603 00090000 01050703  ................
 0920 00090400 01050206 0302090c 00010506  ................
 0930 06030009 00000105 04030009 04000105  ................
 0940 02060306 09040001 050b0603 00090000  ................
 0950 01050903 00090400 01050403 00090800  ................
 0960 01050206 03070904 00010506 06030009  ................
 0970 00000105 04030009 04000105 12030009  ................
 0980 04000105 0e030009 04000105 03060301  ................
 0990 09040001 050e0603 00090000 01050b03  ................
 09a0 00090400 01050903 00090400 01050206  ................
 09b0 03030904 000103b1 01090800 01051006  ................
 09c0 03000900 00010516 03000904 0001050b  ................
 09d0 03000904 00010502 06030109 04000105  ................
 09e0 0c060300 09000001 05020603 d07e0904  .............~..
 09f0 00010330 09000001 05060603 00090000  ...0............
 0a00 01050d03 00090400 01051003 00090400  ................
 0a10 01050403 00090400 01050206 03040904  ................
 0a20 00010506 06030009 00000105 0d030009  ................
 0a30 04000105 10030009 04000105 04030009  ................
 0a40 04000105 02060302 09040001 05060603  ................
 0a50 00090000 01050d03 00090400 01051103  ................
 0a60 00090400 01050403 00090400 01050206  ................
 0a70 03010904 00010506 06030009 00000105  ................
 0a80 0d030009 04000105 10030009 04000105  ................
 0a90 04030009 04000105 0206034a 09040001  ...........J....
 0aa0 032f0900 00010506 06030009 00000105  ./..............
 0ab0 0d030009 04000105 10030009 04000105  ................
 0ac0 04030009 04000105 02060304 09040001  ................
 0ad0 05060603 00090000 01050d03 00090400  ................
 0ae0 01051003 00090400 01050403 00090400  ................
 0af0 01050206 03020904 00010506 06030009  ................
 0b00 00000105 0d030009 04000105 11030009  ................
 0b10 04000105 04030009 04000105 0306034f  ...............O
 0b20 09040001 051e0603 00090000 01052a03  ..............*.
 0b30 00090400 01052003 00090400 01050703  ...... .........
 0b40 00090400 01050306 03020904 00010505  ................
 0b50 06030009 00000105 19060311 09040001  ................
 0b60 051f0603 00090000 01050306 03020908  ................
 0b70 00010302 09000001 03020900 00010302  ................
 0b80 09000001 03030900 0001050e 06030009  ................
 0b90 00000105 0b030009 04000105 09030009  ................
 0ba0 04000105 040603eb 7e090400 01050e06  ........~.......
 0bb0 03000900 00010506 03000904 00010524  ...............$
 0bc0 03000908 0001051a 03000904 00010502  ................
 0bd0 038b0209 08000105 10031609 04000105  ................
 0be0 0306036b 09040001 05020315 09000001  ...k............
 0bf0 05160603 00090000 01050b03 00090400  ................
 0c00 01050206 03010904 0001050c 06030009  ................
 0c10 00000105 14036909 04000105 02030009  ......i.........
 0c20 04000103 0f090800 01050a03 eb7d0904  .............}..
 0c30 00010508 06037e09 04000103 04090000  ......~.........
 0c40 01050a06 03000900 00010508 06037c09  ..............|.
 0c50 08000103 04090000 01050a06 03000900  ................
 0c60 0001050b 039a0209 04000105 0c030109  ................
 0c70 0c000105 0b037f09 0c000105 03060373  ...............s
 0c80 09440001 0502030d 09000001 050b0603  .D..............
 0c90 00090000 01050206 03010904 0001050c  ................
 0ca0 06030009 00000105 03060372 09040001  ...........r....
 0cb0 0502030d 09000001 050b0603 00090000  ................
 0cc0 01050206 03010904 0001050c 06030009  ................
 0cd0 00000105 03060372 09040001 0502030d  .......r........
 0ce0 09000001 050b0603 00090000 01050206  ................
 0cf0 03010904 0001050c 06030009 00000105  ................
 0d00 03060372 09040001 0502030d 09000001  ...r............
 0d10 050b0603 00090000 01050206 03010904  ................
 0d20 0001050c 06030009 00000105 03060372  ...............r
 0d30 09040001 0502030d 09000001 050b0603  ................
 0d40 00090000 01050206 03010904 0001050c  ................
 0d50 06030009 00000105 03060372 09040001  ...........r....
 0d60 0502030d 09000001 050b0603 00090000  ................
 0d70 01050206 03010904 0001050c 06030009  ................
 0d80 00000105 03060372 09040001 0502030d  .......r........
 0d90 09000001 050b0603 00090000 01050206  ................
 0da0 03010904 0001050c 06030009 00000105  ................
 0db0 03060372 09040001 0502030d 09000001  ...r............
 0dc0 050b0603 00090000 01050206 03010904  ................
 0dd0 0001050c 06030009 00000105 02060398  ................
 0de0 7f090400 0103e700 09000001 050b0603  ................
 0df0 00090000 01050206 03010904 0001050c  ................
 0e00 06030009 00000105 02060399 7f090400  ................
 0e10 0103e600 09000001 050b0603 00090000  ................
 0e20 01050206 03010904 0001050c 06030009  ................
 0e30 00000105 040603e7 7d090400 01050203  ........}.......
 0e40 b7010900 000103d2 00090000 01030109  ................
 0e50 00000105 03030109 00000105 02030d09  ................
 0e60 00000105 0b060300 09000001 05020603  ................
 0e70 01090400 01050c06 03000900 00010503  ................
 0e80 06037209 04000105 02030d09 00000105  ..r.............
 0e90 0b060300 09000001 05020603 01090400  ................
 0ea0 01050c06 03000900 00010503 06037209  ..............r.
 0eb0 04000105 02030d09 00000105 0b060300  ................
 0ec0 09000001 05020603 01090400 01050c06  ................
 0ed0 03000900 00010503 06037209 04000105  ..........r.....
 0ee0 02030d09 00000105 0b060300 09000001  ................
 0ef0 05020603 01090400 01050c06 03000900  ................
 0f00 00010503 06037209 04000105 02030d09  ......r.........
 0f10 00000105 0b060300 09000001 05020603  ................
 0f20 01090400 01050c06 03000900 00010503  ................
 0f30 06036a09 04000105 02031509 00000105  ..j.............
 0f40 0b060300 09000001 05020603 01090400  ................
 0f50 01050c06 03000900 00010503 06036a09  ..............j.
 0f60 04000105 02031509 00000105 0b060300  ................
 0f70 09000001 05020603 01090400 01050c06  ................
 0f80 03000900 00010503 06037209 04000105  ..........r.....
 0f90 02030d09 00000105 0b060300 09000001  ................
 0fa0 05020603 01090400 01050c06 03000900  ................
 0fb0 00010503 06037209 04000105 02030d09  ......r.........
 0fc0 00000105 0b060300 09000001 05020603  ................
 0fd0 01090800 01050c06 03000900 00010503  ................
 0fe0 06037209 04000105 02030d09 00000105  ..r.............
 0ff0 0b060300 09000001 05020603 01090800  ................
 1000 01050c06 03000900 00010503 06037209  ..............r.
 1010 04000105 02030d09 00000105 0b060300  ................
 1020 09000001 05020603 01090800 01050c06  ................
 1030 03000900 00010503 06037209 04000105  ..........r.....
 1040 02030d09 00000105 0b060300 09000001  ................
 1050 05020603 01090800 01050c06 03000900  ................
 1060 00010503 06037209 04000105 02030d09  ......r.........
 1070 00000105 0b060300 09000001 05020603  ................
 1080 01090800 01050c06 03000900 00010503  ................
 1090 06037209 04000105 02030d09 00000105  ..r.............
 10a0 0b060300 09000001 05020603 01090800  ................
 10b0 01050c06 03000900 00010503 06037209  ..............r.
 10c0 04000105 02030d09 00000105 0b060300  ................
 10d0 09000001 05020603 01090800 01050c06  ................
 10e0 03000900 00010503 06037209 04000105  ..........r.....
 10f0 02030d09 00000105 0b060300 09000001  ................
 1100 05020603 01090800 01050c06 03000900  ................
 1110 00010503 06037209 04000105 02030d09  ......r.........
 1120 00000105 0b060300 09000001 05020603  ................
 1130 01090800 01050c06 03000900 00010502  ................
 1140 0603a57f 09040001 03da0009 00000105  ................
 1150 0b060300 09000001 05020603 01090800  ................
 1160 01050c06 03000900 00010502 0603a67f  ................
 1170 09040001 03d90009 00000105 0b060300  ................
 1180 09000001 05020603 01090800 01050c06  ................
 1190 03000900 00010504 0603e97d 09040001  ...........}....
 11a0 050203c1 01090000 0103c600 09000001  ................
 11b0 03010900 00010503 03010900 00010502  ................
 11c0 030d0900 0001050b 06030009 00000105  ................
 11d0 02060301 09080001 050c0603 00090000  ................
 11e0 01050306 03720904 00010502 030d0900  .....r..........
 11f0 0001050b 06030009 00000105 02060301  ................
 1200 09080001 050c0603 00090000 01050306  ................
 1210 03720904 00010502 030d0900 0001050b  .r..............
 1220 06030009 00000105 02060301 09080001  ................
 1230 050c0603 00090000 01050306 03720904  .............r..
 1240 00010502 030d0900 0001050b 06030009  ................
 1250 00000105 02060301 09080001 050b0603  ................
 1260 7f090000 01050c03 01090400 01050306  ................
 1270 03720904 00010502 030d0900 0001050b  .r..............
 1280 06030009 00000105 02060301 09040001  ................
 1290 050c0603 00090000 01050306 03720904  .............r..
 12a0 00010502 030d0900 0001050b 06030009  ................
 12b0 00000105 02060301 09080001 050c0603  ................
 12c0 00090000 01050306 03720904 00010502  .........r......
 12d0 030d0900 0001050b 06030009 00000105  ................
 12e0 02060301 09080001 050c0603 00090000  ................
 12f0 01050306 03720904 00010502 030d0900  .....r..........
 1300 0001050b 06030009 00000105 02060301  ................
 1310 09080001 050c0603 00090000 01050306  ................
 1320 03720904 00010502 030d0900 0001050b  .r..............
 1330 06030009 00000105 02060301 09080001  ................
 1340 050c0603 00090000 01050306 03720904  .............r..
 1350 00010502 030d0900 0001050b 06030009  ................
 1360 00000105 02060301 09080001 050c0603  ................
 1370 00090000 01050306 03720904 00010502  .........r......
 1380 030d0900 0001050b 06030009 00000105  ................
 1390 02060301 09080001 050c0603 00090000  ................
 13a0 01050306 03720904 00010502 030d0900  .....r..........
 13b0 0001050b 06030009 00000105 02060301  ................
 13c0 09080001 050c0603 00090000 01050306  ................
 13d0 036a0904 00010502 03150900 0001050b  .j..............
 13e0 06030009 00000105 02060301 09080001  ................
 13f0 050c0603 00090000 01050306 036a0904  .............j..
 1400 00010502 03150900 0001050b 06030009  ................
 1410 00000105 02060301 09080001 050c0603  ................
 1420 00090000 01050306 036a0904 00010502  .........j......
 1430 03150900 0001050b 06030009 00000105  ................
 1440 02060301 09080001 050c0603 00090000  ................
 1450 01050306 036a0904 00010502 03150900  .....j..........
 1460 0001050b 06030009 00000105 02060301  ................
 1470 09080001 050c0603 00090000 01050206  ................
 1480 03b37f09 04000103 cc000900 0001050b  ................
 1490 06030009 00000105 02060301 09080001  ................
 14a0 050c0603 00090000 01050406 03eb7d09  ..............}.
 14b0 04000105 0203cc01 09000001 03390900  .............9..
 14c0 00010301 09000001 05030301 09000001  ................
 14d0 0502030d 09000001 050b0603 00090000  ................
 14e0 01050206 03010908 0001050c 06030009  ................
 14f0 00000105 03060372 09040001 0502030d  .......r........
 1500 09000001 050b0603 00090000 01050206  ................
 1510 03010908 0001050c 06030009 00000105  ................
 1520 03060372 09040001 0502030d 09000001  ...r............
 1530 050b0603 00090000 01050206 03010908  ................
 1540 0001050c 06030009 00000105 03060372  ...............r
 1550 09040001 0502030d 09000001 050b0603  ................
 1560 00090000 01050206 03010908 0001050c  ................
 1570 06030009 00000105 03060372 09040001  ...........r....
 1580 0502030d 09000001 050b0603 00090000  ................
 1590 01050206 03010908 0001050c 06030009  ................
 15a0 00000105 03060372 09040001 0502030d  .......r........
 15b0 09000001 050b0603 00090000 01050206  ................
 15c0 03010908 0001050c 06030009 00000105  ................
 15d0 03060372 09040001 0502030d 09000001  ...r............
 15e0 050b0603 00090000 01050206 03010908  ................
 15f0 0001050c 06030009 00000105 03060372  ...............r
 1600 09040001 0502030d 09000001 050b0603  ................
 1610 00090000 01050206 03010908 0001050c  ................
 1620 06030009 00000105 03060372 09040001  ...........r....
 1630 0502030d 09000001 050b0603 00090000  ................
 1640 01050206 03010908 0001050c 06030009  ................
 1650 00000105 020603ba 7f090400 0103c500  ................
 1660 09000001 050b0603 00090000 01050206  ................
 1670 03010908 0001050c 06030009 00000105  ................
 1680 020603bb 7f090400 0103c400 09000001  ................
 1690 050b0603 00090000 01050206 03010908  ................
 16a0 0001050c 06030009 00000105 040603ed  ................
 16b0 7d090400 01050203 d2010900 00010331  }..............1
 16c0 09000001 03010900 00010503 03010900  ................
 16d0 00010502 030d0900 0001050b 06030009  ................
 16e0 00000105 02060301 09080001 050c0603  ................
 16f0 00090000 01050306 03720904 00010502  .........r......
 1700 030d0900 0001050b 06030009 00000105  ................
 1710 02060301 09080001 050c0603 00090000  ................
 1720 01050306 03720904 00010502 030d0900  .....r..........
 1730 0001050b 06030009 00000105 02060301  ................
 1740 09080001 050c0603 00090000 01050306  ................
 1750 03720904 00010502 030d0900 0001050b  .r..............
 1760 06030009 00000105 02060301 09080001  ................
 1770 050c0603 00090000 01050306 03720904  .............r..
 1780 00010502 030d0900 0001050b 06030009  ................
 1790 00000105 02060301 09080001 050c0603  ................
 17a0 00090000 01050306 03720904 00010502  .........r......
 17b0 030d0900 0001050b 06030009 00000105  ................
 17c0 02060301 09080001 050c0603 00090000  ................
 17d0 01050306 03720904 00010502 030d0900  .....r..........
 17e0 0001050b 06030009 00000105 02060301  ................
 17f0 09080001 050c0603 00090000 01050306  ................
 1800 03720904 00010502 030d0900 0001050b  .r..............
 1810 06030009 00000105 02060301 09080001  ................
 1820 050c0603 00090000 01050306 03720904  .............r..
 1830 00010502 030d0900 0001050b 06030009  ................
 1840 00000105 02060301 09080001 050b0603  ................
 1850 7f090000 01050c03 01090400 01050306  ................
 1860 03720904 00010502 030d0900 0001050b  .r..............
 1870 06030009 00000105 02060301 09040001  ................
 1880 050c0603 00090000 01050206 03420904  .............B..
 1890 0001033d 09000001 050b0603 00090000  ...=............
 18a0 01050206 03010908 0001050c 06030009  ................
 18b0 00000105 02060343 09040001 033c0900  .......C.....<..
 18c0 0001050b 06030009 00000105 02060301  ................
 18d0 09080001 050c0603 00090000 01050406  ................
 18e0 03ee7d09 04000105 0203d901 09000001  ..}.............
 18f0 03210900 00010301 09000001 05030301  .!..............
 1900 09000001 05020315 09000001 050b0603  ................
 1910 00090000 01050206 03010908 0001050c  ................
 1920 06030009 00000105 0306036a 09040001  ...........j....
 1930 05020315 09000001 050b0603 00090000  ................
 1940 01050206 03010908 0001050c 06030009  ................
 1950 00000105 0306036a 09040001 05020315  .......j........
 1960 09000001 050b0603 00090000 01050206  ................
 1970 03010908 0001050c 06030009 00000105  ................
 1980 0306036a 09040001 05020315 09000001  ...j............
 1990 050b0603 00090000 01050206 03010908  ................
 19a0 0001050c 06030009 00000105 0306036a  ...............j
 19b0 09040001 05020315 09000001 050b0603  ................
 19c0 00090000 01050206 03010908 0001050c  ................
 19d0 06030009 00000105 0306036a 09040001  ...........j....
 19e0 05020315 09000001 050b0603 00090000  ................
 19f0 01050206 03010908 0001050c 06030009  ................
 1a00 00000105 03060372 09040001 0502030d  .......r........
 1a10 09000001 050b0603 00090000 01050206  ................
 1a20 03010908 0001050c 06030009 00000105  ................
 1a30 03060372 09040001 0502030d 09000001  ...r............
 1a40 050b0603 00090000 01050206 03010908  ................
 1a50 0001050c 06030009 00000105 03060372  ...............r
 1a60 09040001 0502030d 09000001 050b0603  ................
 1a70 00090000 01050206 03010908 0001050c  ................
 1a80 06030009 00000105 03060372 09040001  ...........r....
 1a90 0502030d 09000001 050b0603 00090000  ................
 1aa0 01050206 03010908 0001050c 06030009  ................
 1ab0 00000105 03060372 09040001 0502030d  .......r........
 1ac0 09000001 050b0603 00090000 01050206  ................
 1ad0 03010908 0001050c 06030009 00000105  ................
 1ae0 03060372 09040001 0502030d 09000001  ...r............
 1af0 050b0603 00090000 01050206 03010908  ................
 1b00 0001050c 06030009 00000105 03060372  ...............r
 1b10 09040001 0502030d 09000001 050b0603  ................
 1b20 00090000 01050206 03010908 0001050c  ................
 1b30 06030009 00000105 03060372 09040001  ...........r....
 1b40 0502030d 09000001 050b0603 00090000  ................
 1b50 01050206 03010908 0001050c 06030009  ................
 1b60 00000105 03060372 09040001 0502030d  .......r........
 1b70 09000001 050b0603 00090000 01050206  ................
 1b80 03010908 0001050c 06030009 00000105  ................
 1b90 03060372 09040001 0502030d 09000001  ...r............
 1ba0 050b0603 00090000 01050206 03010908  ................
 1bb0 0001050c 06030009 00000105 03060372  ...............r
 1bc0 09040001 0502030d 09000001 050b0603  ................
 1bd0 00090000 01050206 03010908 0001050c  ................
 1be0 06030009 00000105 03060372 09040001  ...........r....
 1bf0 0502030d 09000001 050b0603 00090000  ................
 1c00 01050206 03010908 0001050c 06030009  ................
 1c10 00000105 03060372 09040001 0502030d  .......r........
 1c20 09000001 050b0603 00090000 01050206  ................
 1c30 03010908 0001050c 06030009 00000105  ................
 1c40 0206034f 09040001 03300900 0001050b  ...O.....0......
 1c50 06030009 00000105 02060301 09080001  ................
 1c60 050c0603 00090000 01050206 03500904  .............P..
 1c70 0001032f 09000001 050b0603 00090000  .../............
 1c80 01050206 03010908 0001050c 06030009  ................
 1c90 00000105 040603f0 7d090400 01050203  ........}.......
 1ca0 e4010900 00010314 09000001 03010900  ................
 1cb0 00010503 03010900 00010502 03150900  ................
 1cc0 0001050b 06030009 00000105 02060301  ................
 1cd0 09080001 050c0603 00090000 01050306  ................
 1ce0 036a0904 00010502 03150900 0001050b  .j..............
 1cf0 06030009 00000105 02060301 09080001  ................
 1d00 050c0603 00090000 01050306 036a0904  .............j..
 1d10 00010502 03150900 0001050b 06030009  ................
 1d20 00000105 02060301 09080001 050c0603  ................
 1d30 00090000 01050306 036a0904 00010502  .........j......
 1d40 03150900 0001050b 06030009 00000105  ................
 1d50 02060301 09080001 050c0603 00090000  ................
 1d60 01050306 036a0904 00010502 03150900  .....j..........
 1d70 0001050b 06030009 00000105 02060301  ................
 1d80 09080001 050c0603 00090000 01050306  ................
 1d90 036a0904 00010502 03150900 0001050b  .j..............
 1da0 06030009 00000105 02060301 09080001  ................
 1db0 050c0603 00090000 01050306 036a0904  .............j..
 1dc0 00010502 03150900 0001050b 06030009  ................
 1dd0 00000105 02060301 09080001 050c0603  ................
 1de0 00090000 01050306 036a0904 00010502  .........j......
 1df0 03150900 0001050b 06030009 00000105  ................
 1e00 02060301 09080001 050c0603 00090000  ................
 1e10 01050306 036a0904 00010502 03150900  .....j..........
 1e20 0001050b 06030009 00000105 02060301  ................
 1e30 09080001 050b0603 7f090000 01050c03  ................
 1e40 01090400 01050206 03570904 00010328  .........W.....(
 1e50 09000001 050b0603 00090000 01050206  ................
 1e60 03010904 0001050c 06030009 00000105  ................
 1e70 02060358 09040001 03270900 0001050b  ...X.....'......
 1e80 06030009 00000105 02060301 09080001  ................
 1e90 050c0603 00090000 01050406 03f17d09  ..............}.
 1ea0 04000105 0e060300 09000001 05060300  ................
 1eb0 09040001 05030603 f9010908 00010502  ................
 1ec0 03150900 0001050b 06030009 00000105  ................
 1ed0 02060301 09080001 050c0603 00090000  ................
 1ee0 01050306 036a0904 00010502 03150900  .....j..........
 1ef0 0001050b 06030009 00000105 02060301  ................
 1f00 09080001 050c0603 00090000 01050306  ................
 1f10 036a0904 00010502 03150900 0001050b  .j..............
 1f20 06030009 00000105 02060301 09080001  ................
 1f30 050c0603 00090000 01050306 036a0904  .............j..
 1f40 00010502 03150900 0001050b 06030009  ................
 1f50 00000105 02060301 09080001 050c0603  ................
 1f60 00090000 01050306 036a0904 00010502  .........j......
 1f70 03150900 0001050b 06030009 00000105  ................
 1f80 02060301 09080001 050c0603 00090000  ................
 1f90 01050306 036a0904 00010502 03150900  .....j..........
 1fa0 0001050b 06030009 00000105 02060301  ................
 1fb0 09080001 050c0603 00090000 01050306  ................
 1fc0 036a0904 00010502 03150900 0001050b  .j..............
 1fd0 06030009 00000105 02060301 09080001  ................
 1fe0 050c0603 00090000 01050306 036a0904  .............j..
 1ff0 00010502 03150900 0001050b 06030009  ................
 2000 00000105 02060301 09080001 050c0603  ................
 2010 00090000 01050306 036a0904 00010502  .........j......
 2020 03150900 0001050b 06030009 00000105  ................
 2030 02060301 09080001 050c0603 00090000  ................
 2040 01050206 03630904 0001031c 09000001  .....c..........
 2050 050b0603 00090000 01050206 03010908  ................
 2060 0001050c 06030009 00000105 02060364  ...............d
 2070 09040001 031b0900 0001050b 06030009  ................
 2080 00000105 02060301 09080001 050c0603  ................
 2090 00090000 01050306 038c7e09 08000105  ..........~.....
 20a0 32060300 09080001 053e0300 09040001  2........>......
 20b0 05030300 09040001 05020603 e4010904  ................
 20c0 00010301 09000001 05050603 7f090000  ................
 20d0 01050203 01090400 01050306 03010904  ................
 20e0 00010502 030d0900 00010510 06030009  ................
 20f0 00000105 16030009 04000105 0b030009  ................
 2100 04000105 02060301 09040001 050c0603  ................
 2110 00090000 01051403 71090400 01050203  ........q.......
 2120 00090400 01050306 039e7e09 04000105  ..........~.....
 2130 12060300 09000001 051e0300 09040001  ................
 2140 05160300 09040001 05220300 09040001  ........."......
 2150 05090300 09040001 05050300 09040001  ................
 2160 05040603 01090400 01051606 03000900  ................
 2170 0001051a 03000904 0001050e 03000904  ................
 2180 00010503 06037c09 08000105 32060300  ......|.....2...
 2190 09080001 053e0300 09040001 05030300  .....>..........
 21a0 09040001 05020603 e4010904 00010301  ................
 21b0 09000001 05050603 7f090000 01050203  ................
 21c0 01090400 01050306 03010904 00010502  ................
 21d0 030d0900 00010510 06030009 00000105  ................
 21e0 16030009 04000105 0b030009 04000105  ................
 21f0 02060301 09040001 050c0603 00090000  ................
 2200 01051403 71090400 01050203 00090400  ....q...........
 2210 01050306 039e7e09 04000105 12060300  ......~.........
 2220 09000001 051e0300 09040001 05160300  ................
 2230 09040001 05220300 09040001 05090300  ....."..........
 2240 09040001 05050300 09040001 05040603  ................
 2250 01090400 01051606 03000900 0001051a  ................
 2260 03000904 0001050e 03000904 00010523  ...............#
 2270 03710908 00010508 03040904 00010517  .q..............
 2280 037c0904 00010507 06030309 04000105  .|..............
 2290 11060300 09000001 0506037a 09040001  ...........z....
 22a0 05090306 09040001 05290300 09040001  .........)......
 22b0 051c0300 09040001 05080301 09040001  ................
 22c0 0523037c 09080001 05080304 09040001  .#.|............
 22d0 0517037c 09040001 05070603 03090400  ...|............
 22e0 01051106 03000900 00010506 037a0904  .............z..
 22f0 00010509 03060904 00010529 03000904  ...........)....
 2300 0001051c 03000904 00010508 03010904  ................
 2310 00010503 06031909 08000105 32060300  ............2...
 2320 09080001 053e0300 09040001 05030300  .....>..........
 2330 09040001 05020603 d2010904 00010301  ................
 2340 09000001 05050603 7f090000 01050203  ................
 2350 01090400 01050306 03010904 00010502  ................
 2360 030d0900 00010510 06030009 00000105  ................
 2370 16030009 04000105 0b030009 04000105  ................
 2380 02060301 09040001 050c0603 00090000  ................
 2390 01051403 71090400 01050203 00090400  ....q...........
 23a0 01050306 03b07e09 04000105 0d060300  ......~.........
 23b0 09000001 05110300 09040001 05050300  ................
 23c0 09040001 05040603 01090400 01051606  ................
 23d0 03000900 0001051a 03000904 0001050e  ................
 23e0 03000904 00010503 06037c09 08000105  ..........|.....
 23f0 32060300 09080001 053e0300 09040001  2........>......
 2400 05030300 09040001 05020603 d2010904  ................
 2410 00010301 09000001 05050603 7f090000  ................
 2420 01050203 01090400 01050306 03010904  ................
 2430 00010502 030d0900 00010510 06030009  ................
 2440 00000105 16030009 04000105 0b030009  ................
 2450 04000105 02060301 09040001 050c0603  ................
 2460 00090000 01051403 71090400 01050203  ........q.......
 2470 00090400 01050306 03b07e09 04000105  ..........~.....
 2480 0d060300 09000001 05110300 09040001  ................
 2490 05050300 09040001 05040603 01090400  ................
 24a0 01051606 03000900 0001051a 03000904  ................
 24b0 0001050e 03000904 00010504 06037209  ..............r.
 24c0 08000105 0e060300 09000001 05040603  ................
 24d0 00090800 01050e06 03000900 00010504  ................
 24e0 06031109 08000105 0e060300 09000001  ................
 24f0 05040603 00090800 01050e06 03000900  ................
 2500 00010502 06032c09 08000103 2f090000  ......,...../...
 2510 01050606 03000900 0001050d 03000904  ................
 2520 00010510 03000904 00010504 03000904  ................
 2530 00010502 06030409 04000105 06060300  ................
 2540 09000001 050d0300 09040001 05100300  ................
 2550 09040001 05040300 09040001 05020603  ................
 2560 02090400 01050606 03000900 0001050d  ................
 2570 03000904 00010511 03000904 00010504  ................
 2580 03000904 00010502 06030109 04000105  ................
 2590 06060300 09000001 050d0300 09040001  ................
 25a0 05100300 09040001 05040300 09040001  ................
 25b0 05020603 4c090400 01050703 12090000  ....L...........
 25c0 01050303 01090000 01051e06 03000900  ................
 25d0 0001052a 03000904 00010520 03000904  ...*....... ....
 25e0 00010507 03000904 00010503 06030209  ................
 25f0 04000105 05060300 09000001 05030603  ................
 2600 02090400 01050506 03000900 00010519  ................
 2610 06030009 04000105 1f060300 09000001  ................
 2620 05030603 02090400 01030209 00000103  ................
 2630 02090000 01039c7f 09040001 05320603  .............2..
 2640 00090800 01053e03 00090400 01050303  ......>.........
 2650 00090400 01050206 03e40109 04000103  ................
 2660 01090000 01050506 037f0900 00010502  ................
 2670 03010904 00010503 06030109 04000105  ................
 2680 02030d09 00000105 10060300 09000001  ................
 2690 05160300 09040001 050b0300 09040001  ................
 26a0 05020603 01090400 01050c06 03000900  ................
 26b0 00010514 03710904 00010502 03000904  .....q..........
 26c0 00010503 06039e7e 09040001 05120603  .......~........
 26d0 00090000 01051e03 00090400 01051603  ................
 26e0 00090400 01052203 00090400 01050903  ......".........
 26f0 00090400 01050503 00090400 01050406  ................
 2700 03010904 00010516 06030009 00000105  ................
 2710 1a030009 04000105 0e030009 04000105  ................
 2720 0306037c 09080001 05320603 00090800  ...|.....2......
 2730 01053e03 00090400 01050303 00090400  ..>.............
 2740 01050206 03e40109 04000103 01090000  ................
 2750 01050506 037f0900 00010502 03010904  ................
 2760 00010503 06030109 04000105 02030d09  ................
 2770 00000105 10060300 09000001 05160300  ................
 2780 09040001 050b0300 09040001 05020603  ................
 2790 01090400 01050c06 03000900 00010514  ................
 27a0 03710904 00010502 03000904 00010503  .q..............
 27b0 06039e7e 09040001 05120603 00090000  ...~............
 27c0 01051e03 00090400 01051603 00090400  ................
 27d0 01052203 00090400 01050903 00090400  ..".............
 27e0 01050503 00090400 01050406 03010904  ................
 27f0 00010516 06030009 00000105 1a030009  ................
 2800 04000105 0e030009 04000105 29037409  ............).t.
 2810 08000105 1c030009 04000105 08030109  ................
 2820 04000105 29037f09 08000105 1c030009  ....)...........
 2830 04000105 08030109 04000105 23037c09  ............#.|.
 2840 08000105 08030409 04000105 17037c09  ..............|.
 2850 04000105 23030009 08000105 08030409  ....#...........
 2860 04000105 17037c09 04000105 0306031d  ......|.........
 2870 09080001 05320603 00090800 01053e03  .....2........>.
 2880 00090400 01050303 00090400 01050206  ................
 2890 03d20109 04000103 01090000 01050506  ................
 28a0 037f0900 00010502 03010904 00010503  ................
 28b0 06030109 04000105 02030d09 00000105  ................
 28c0 10060300 09000001 05160300 09040001  ................
 28d0 050b0300 09040001 05020603 01090400  ................
 28e0 01050c06 03000900 00010514 03710904  .............q..
 28f0 00010502 03000904 00010503 0603b07e  ...............~
 2900 09040001 050d0603 00090000 01051103  ................
 2910 00090400 01050503 00090400 01050406  ................
 2920 03010904 00010516 06030009 00000105  ................
 2930 1a030009 04000105 0e030009 04000105  ................
 2940 0306037c 09080001 05320603 00090800  ...|.....2......
 2950 01053e03 00090400 01050303 00090400  ..>.............
 2960 01050206 03d20109 04000103 01090000  ................
 2970 01050506 037f0900 00010502 03010904  ................
 2980 00010503 06030109 04000105 02030d09  ................
 2990 00000105 10060300 09000001 05160300  ................
 29a0 09040001 050b0300 09040001 05020603  ................
 29b0 01090400 01050c06 03000900 00010514  ................
 29c0 03710904 00010502 03000904 00010503  .q..............
 29d0 0603b07e 09040001 050d0603 00090000  ...~............
 29e0 01051103 00090400 01050503 00090400  ................
 29f0 01050406 03010904 00010516 06030009  ................
 2a00 00000105 1a030009 04000105 0e030009  ................
 2a10 04000105 030603ca 00090800 01050506  ................
 2a20 03000900 00010519 06030009 04000105  ................
 2a30 24060300 09000001 05210300 09040001  $........!......
 2a40 051f0300 09040001 05030603 02090400  ................
 2a50 01030209 00000103 82010904 00010502  ................
 2a60 030d0900 0001050b 06030009 00000105  ................
 2a70 02060301 09080001 050c0603 00090000  ................
 2a80 01050306 03720904 00010502 030d0900  .....r..........
 2a90 0001050b 06030009 00000105 02060301  ................
 2aa0 09080001 050c0603 00090000 01050306  ................
 2ab0 03720904 00010502 030d0900 0001050b  .r..............
 2ac0 06030009 00000105 02060301 09080001  ................
 2ad0 050c0603 00090000 01050306 03720904  .............r..
 2ae0 00010502 030d0900 0001050b 06030009  ................
 2af0 00000105 02060301 09080001 050c0603  ................
 2b00 00090000 01050306 03720904 00010502  .........r......
 2b10 030d0900 0001050b 06030009 00000105  ................
 2b20 02060301 09080001 050c0603 00090000  ................
 2b30 01050306 03ee7e09 08000105 05060300  ......~.........
 2b40 09000001 05190603 00090800 01051f06  ................
 2b50 03000900 00010503 06030209 08000103  ................
 2b60 00090400 01050506 03000900 00010519  ................
 2b70 06030009 04000105 1f060300 09000001  ................
 2b80 05040603 b57f090c 0001050e 06030009  ................
 2b90 00000105 0406036f 09080001 050e0603  .......o........
 2ba0 00090000 01050406 03000908 0001050e  ................
 2bb0 06030009 00000105 03060330 09080001  ...........0....
 2bc0 05110603 00090000 01050203 a5010908  ................
 2bd0 00010511 03db7e09 04000105 03060301  ......~.........
 2be0 09080001 050203e1 7e090000 0103d202  ........~.......
 2bf0 09000001 05070300 09000001 05100603  ................
 2c00 07090000 01050306 036b0904 00010502  .........k......
 2c10 03150900 00010516 06030009 00000105  ................
 2c20 0b030009 04000105 02060301 09040001  ................
 2c30 050c0603 00090000 01051403 69090400  ............i...
 2c40 01050203 00090400 01030f09 08000106  ................
 2c50 03b07d09 04000105 17060300 09000001  ..}.............
 2c60 050e0300 09040001 05020603 01090800  ................
 2c70 01051706 03000900 0001050e 03000904  ................
 2c80 0001050c 03030904 0001050e 037d0904  .............}..
 2c90 00010502 06030209 04000105 0c060300  ................
 2ca0 09000001 05020603 01090400 01050c06  ................
 2cb0 03000900 00010502 06030109 04000105  ................
 2cc0 0c060300 09000001 05020603 01090400  ................
 2cd0 01051106 03000900 00010502 06030109  ................
 2ce0 08000105 13060300 09000001 05020603  ................
 2cf0 01090400 01050d06 03000900 00010502  ................
 2d00 06030409 04000105 0c060300 09000001  ................
 2d10 05020603 01090800 01050c06 03000900  ................
 2d20 00010502 06030109 04000105 0c060300  ................
 2d30 09000001 05020603 01090400 01051106  ................
 2d40 03000900 00010502 06030109 04000105  ................
 2d50 13060300 09000001 05020603 01090400  ................
 2d60 01050d06 03000900 00010502 06030309  ................
 2d70 04000105 09060300 09000001 05020603  ................
 2d80 01090800 01050906 03000900 00010502  ................
 2d90 06030109 04000105 0a060300 09000001  ................
 2da0 05030603 8001090c 00010511 06030009  ................
 2db0 00000105 0203ab01 09080001 051103d5  ................
 2dc0 7e090400 01050306 03010908 00010502  ~...............
 2dd0 03e77e09 00000103 d2020900 00010507  ..~.............
 2de0 03000900 00010510 06030709 00000105  ................
 2df0 0306036b 09040001 05020315 09000001  ...k............
 2e00 05160603 00090000 01050b03 00090400  ................
 2e10 01050206 03010904 0001050c 06030009  ................
 2e20 00000105 14036909 04000105 02030009  ......i.........
 2e30 04000103 0f090800 01050406 03ad7e09  ..............~.
 2e40 08000105 0e060300 09000001 05020603  ................
 2e50 e2000908 00010506 06030009 00000105  ................
 2e60 0d030009 04000109 08000001 01        .............   
Contents of section .debug_info:
 0000 22000000 02000000 00000401 00000000  "...............
 0010 00000000 10000000 00000000 0b000000  ................
 0020 26000000 01801428 00000400 14000000  &......(........
 0030 04011903 00000c76 0000000b 00000038  .......v.......8
 0040 0c000000 00000045 00000002 0106fc03  .......E........
 0050 00000201 08fa0300 00020205 16040000  ................
 0060 020207b3 02000002 04055201 00000204  ..........R.....
 0070 07f60000 00020805 4d010000 020807f1  ........M.......
 0080 00000003 0405696e 7400045d 00000005  ......int..]....
 0090 5d000000 020407fb 00000002 10048403  ]...............
 00a0 000006d5 03000002 0c0d5d00 000006c4  ..........].....
 00b0 03000003 2c0e4100 000006d2 04000003  ....,.A.........
 00c0 720e4100 000006b3 05000003 91175d00  r.A...........].
 00d0 000007fe 02000004 6501176e 00000008  ........e..n....
 00e0 0403a603 db000000 09f00200 0003a80c  ................
 00f0 ac000000 097a0200 0003a913 db000000  .....z..........
 0100 000a2c00 0000eb00 00000b6e 00000003  ..,........n....
 0110 000c0803 a3090f01 00000dbc 04000003  ................
 0120 a5075d00 0000000d c4040000 03aa05b9  ..].............
 0130 00000004 00063e04 000003ab 03eb0000  ......>.........
 0140 00063d02 000003af 1b7c0000 000e0406  ..=......|......
 0150 3f050000 05161948 0000000f 4e020000  ?......H....N...
 0160 18052f08 8f010000 0d5f0400 00053113  ../......_....1.
 0170 8f010000 00105f6b 00053207 5d000000  ......_k..2.]...
 0180 040da704 00000532 0b5d0000 00080d37  .......2.].....7
 0190 02000005 32145d00 00000c0d 9e050000  ....2.].........
 01a0 05321b5d 00000010 105f7800 05330b95  .2.]....._x..3..
 01b0 01000014 00110435 0100000a 29010000  .......5....)...
 01c0 a5010000 0b6e0000 0000000f 75020000  .....n......u...
 01d0 24053708 28020000 0d440100 00053909  $.7.(....D....9.
 01e0 5d000000 000de304 0000053a 095d0000  ]..........:.]..
 01f0 00040d74 01000005 3b095d00 0000080d  ...t....;.].....
 0200 67060000 053c095d 0000000c 0da80300  g....<.]........
 0210 00053d09 5d000000 100d6a03 0000053e  ..=.].....j....>
 0220 095d0000 00140da3 05000005 3f095d00  .]..........?.].
 0230 0000180d 20040000 0540095d 0000001c  .... ....@.]....
 0240 0dec0500 00054109 5d000000 20001283  ......A.]... ...
 0250 01000008 01054a08 6d020000 0d240200  ......J.m....$..
 0260 00054b0a 6d020000 000d3400 0000054c  ..K.m.....4....L
 0270 096d0200 00801307 05000005 4e0a2901  .m..........N.).
 0280 00000001 13c00100 0005510a 29010000  ..........Q.)...
 0290 0401000a 27010000 7d020000 0b6e0000  ....'...}....n..
 02a0 001f0012 b1030000 9001055d 08c00200  ...........]....
 02b0 000d5f04 0000055e 12c00200 00000d77  .._....^.......w
 02c0 04000005 5f065d00 0000040d 32020000  ...._.].....2...
 02d0 056109c6 02000008 0d830100 0005621e  .a............b.
 02e0 28020000 88001104 7d020000 0ad60200  (.......}.......
 02f0 00d60200 000b6e00 00001f00 1104dc02  ......n.........
 0300 0000140f 2a040000 08057508 05030000  ....*.....u.....
 0310 0d6e0100 00057611 05030000 000d5500  .n....v.......U.
 0320 00000577 065d0000 00040011 042c0000  ...w.].......,..
 0330 000f4904 00006805 b5084e04 0000105f  ..I...h...N...._
 0340 700005b6 12050300 0000105f 720005b7  p.........._r...
 0350 075d0000 0004105f 770005b8 075d0000  .]....._w....]..
 0360 00080db9 01000005 b9093300 00000c0d  ..........3.....
 0370 99020000 05ba0933 0000000e 105f6266  .......3....._bf
 0380 0005bb11 dd020000 100d0801 000005bc  ................
 0390 075d0000 00180da1 01000005 c30a2701  .]............'.
 03a0 00001c0d 65020000 05c51dd2 05000020  ....e.......... 
 03b0 0d630300 0005c71d fc050000 240dcc04  .c..........$...
 03c0 000005ca 0d200600 00280d06 06000005  ..... ...(......
 03d0 cb093a06 00002c10 5f756200 05ce11dd  ..:...,._ub.....
 03e0 02000030 105f7570 0005cf12 05030000  ...0._up........
 03f0 38105f75 720005d0 075d0000 003c0d5b  8._ur....]...<.[
 0400 01000005 d3114006 0000400d d0050000  ......@...@.....
 0410 05d41150 06000043 105f6c62 0005d711  ...P...C._lb....
 0420 dd020000 440dd701 000005da 075d0000  ....D........]..
 0430 004c0df8 01000005 db0a8800 0000500d  .L............P.
 0440 bb000000 05de126c 04000054 0d050300  .......l...T....
 0450 0005e20c 1b010000 580d5104 000005e4  ........X.Q.....
 0460 0e0f0100 005c0d0b 03000005 e5095d00  .....\........].
 0470 00006400 15a00000 006c0400 00166c04  ..d......l....l.
 0480 00001627 01000016 c0050000 165d0000  ...'.........]..
 0490 00001104 77040000 056c0400 0017af04  ....w....l......
 04a0 00002804 05390208 c0050000 180f0400  ..(..9..........
 04b0 00053b02 075d0000 000018c8 01000005  ..;..]..........
 04c0 40020bac 06000004 18890200 00054002  @.............@.
 04d0 14ac0600 00081846 02000005 40021eac  .......F....@...
 04e0 0600000c 18720400 00054202 085d0000  .....r....B..]..
 04f0 0010189b 00000005 430208ac 08000014  ........C.......
 0500 188e0400 00054602 075d0000 0030187c  ......F..]...0.|
 0510 04000005 470216c1 08000034 18b90300  ....G......4....
 0520 00054902 075d0000 00381884 04000005  ..I..]...8......
 0530 4b020ad2 0800003c 18e80200 00054e02  K......<......N.
 0540 138f0100 0040186b 02000005 4f02075d  .....@.k....O..]
 0550 00000044 18340600 00055002 138f0100  ...D.4....P.....
 0560 004818cb 03000005 510214d8 0800004c  .H......Q......L
 0570 18910200 00055402 075d0000 005018f0  ......T..]...P..
 0580 01000005 550209c0 05000054 18080400  ....U......T....
 0590 00057802 07870800 005819b1 03000005  ..x......X......
 05a0 7c0213c0 02000048 0119c602 0000057d  |......H.......}
 05b0 02127d02 00004c01 19c60500 00058102  ..}...L.........
 05c0 0ce90800 00dc0219 a9010000 05860210  ................
 05d0 6d060000 e002197e 01000005 88020af5  m......~........
 05e0 080000ec 02001104 c6050000 02010803  ................
 05f0 04000005 c6050000 11044e04 000015a0  ..........N.....
 0600 000000f6 05000016 6c040000 16270100  ........l....'..
 0610 0016f605 0000165d 00000000 1104cd05  .......]........
 0620 00001104 d8050000 15940000 00200600  ............. ..
 0630 00166c04 00001627 01000016 94000000  ..l....'........
 0640 165d0000 00001104 02060000 155d0000  .]...........]..
 0650 003a0600 00166c04 00001627 01000000  .:....l....'....
 0660 11042606 00000a2c 00000050 0600000b  ..&....,...P....
 0670 6e000000 02000a2c 00000060 0600000b  n......,...`....
 0680 6e000000 00000737 04000005 1f011a0b  n......7........
 0690 0300001a ad050000 0c052301 08a60600  ..........#.....
 06a0 00185f04 00000525 0111a606 00000018  .._....%........
 06b0 ac020000 05260107 5d000000 04183104  .....&..].....1.
 06c0 00000527 010bac06 00000800 11046d06  ...'..........m.
 06d0 00001104 60060000 1a870000 000e053f  ....`..........?
 06e0 0108eb06 000018b6 04000005 400112eb  ............@...
 06f0 06000000 181e0500 00054101 12eb0600  ..........A.....
 0700 0006183a 05000005 4201123a 0000000c  ...:....B..:....
 0710 000a3a00 0000fb06 00000b6e 00000002  ..:........n....
 0720 001bd005 59020710 08000018 84050000  ....Y...........
 0730 055b0218 6e000000 00182405 0000055c  .[..n.....$....\
 0740 0212c005 00000418 db020000 055d0210  .............]..
 0750 10080000 0818f705 0000055e 0217a501  ...........^....
 0760 00002418 56020000 055f020f 5d000000  ..$.V...._..]...
 0770 48185a04 00000560 022c5600 00005018  H.Z....`.,V...P.
 0780 0d060000 0561021a b2060000 58186504  .....a......X.e.
 0790 00000562 02160f01 00006818 19060000  ...b......h.....
 07a0 05630216 0f010000 70183601 00000564  .c......p.6....d
 07b0 02160f01 00007818 bc050000 05650210  ......x......e..
 07c0 20080000 8018cf02 00000566 02103008   ..........f..0.
 07d0 00008818 47050000 0567020f 5d000000  ....G....g..]...
 07e0 a0181602 00000568 02160f01 0000a418  .......h........
 07f0 27010000 05690216 0f010000 ac180502  '....i..........
 0800 0000056a 02160f01 0000b418 c1000000  ...j............
 0810 056b0216 0f010000 bc18d000 0000056c  .k.............l
 0820 02160f01 0000c418 0d040000 056d0208  .............m..
 0830 5d000000 cc000ac6 05000020 0800000b  ].......... ....
 0840 6e000000 19000ac6 05000030 0800000b  n..........0....
 0850 6e000000 07000ac6 05000040 0800000b  n..........@....
 0860 6e000000 17001bf0 05720207 67080000  n........r..g...
 0870 18a10300 00057502 1b670800 00001874  ......u..g.....t
 0880 03000005 76021877 08000078 000a0503  ....v..w...x....
 0890 00007708 00000b6e 0000001d 000a6e00  ..w....n......n.
 08a0 00008708 00000b6e 0000001d 001cf005  .......n........
 08b0 570203ac 0800001d af040000 056e020b  W............n..
 08c0 fb060000 1dd60500 00057702 0b400800  ..........w..@..
 08d0 00000ac6 050000bc 0800000b 6e000000  ............n...
 08e0 18001e11 01000011 04bc0800 001fd208  ................
 08f0 0000166c 04000000 1104c708 00001104  ...l............
 0900 8f010000 1fe90800 00165d00 00000011  ..........].....
 0910 04ef0800 001104de 0800000a 60060000  ............`...
 0920 05090000 0b6e0000 00020020 78050000  .....n..... x...
 0930 05070317 6c040000 20710500 00050803  ....l... q......
 0940 1d720400 0021f602 00000610 0f2b0900  .r...!.......+..
 0950 001104c0 05000021 7d030000 06fc0ec0  .......!}.......
 0960 05000021 9a030000 06fd0c5d 00000021  ...!.......]...!
 0970 17050000 06fd145d 00000021 12060000  .......]...!....
 0980 06fd1c5d 00000021 5a030000 06ff0c5d  ...]...!Z......]
 0990 00000022 a4020000 01071685 09000005  ..."............
 09a0 03e01800 00110464 00000005 7f090000  .......d........
 09b0 22460000 00010816 85090000 0503dc18  "F..............
 09c0 000022b1 01000001 09168509 00000503  ..".............
 09d0 d8180000 22450600 00010b16 85090000  ...."E..........
 09e0 0503d418 00002250 06000001 0c168509  ......"P........
 09f0 00000503 d0180000 22da0400 00010e16  ........".......
 0a00 85090000 0503cc18 000022b2 00000001  ..........".....
 0a10 120b6900 00000503 c8180000 22910500  ..i........."...
 0a20 0001130b 69000000 0503c418 00002266  ....i........."f
 0a30 05000001 140b6900 00000503 c0180000  ......i.........
 0a40 225b0600 0001150b 69000000 0503bc18  "[......i.......
 0a50 0000221c 01000001 170b6900 00000503  ..".......i.....
 0a60 b8180000 0f000500 0010011d 107a0a00  .............z..
 0a70 00107800 011e065d 00000000 10790001  ..x....].....y..
 0a80 1e095d00 00000410 64780001 1f065d00  ..].....dx....].
 0a90 00000810 64790001 1f0a5d00 00000c00  ....dy....].....
 0aa0 06100500 00012003 3e0a0000 047a0a00  ...... .>....z..
 0ab0 000f5405 00002001 2210f90a 00001078  ..T... ."......x
 0ac0 00012306 5d000000 00107900 0123095d  ..#.].....y..#.]
 0ad0 00000004 10770001 24065d00 00000810  .....w..$.].....
 0ae0 64790001 25065d00 00000c0d e9010000  dy..%.].........
 0af0 0126065d 00000010 0d310500 00012706  .&.].....1....'.
 0b00 5d000000 140d2c02 00000128 065d0000  ].....,....(.]..
 0b10 00181069 64000129 065d0000 001c0006  ...id..).]......
 0b20 5d050000 012b038b 0a000004 f90a0000  ]....+..........
 0b30 22950300 00012e11 860a0000 05035814  ".............X.
 0b40 00002291 01000001 2f13050b 00000503  .."...../.......
 0b50 18140000 22990100 00013013 050b0000  ....".....0.....
 0b60 05033814 000023e0 01000001 a9010d01  ..8...#.........
 0b70 720b0000 24580001 a9011a5d 00000024  r...$X.....]...$
 0b80 590001a9 01215d00 00002513 03000001  Y....!]...%.....
 0b90 a901285d 00000000 26e10000 0001a201  ..(]....&.......
 0ba0 0d018e0b 00002728 590001a3 010b5d00  ......'(Y.....].
 0bb0 00000000 23e70300 00019a01 0d01cd0b  ....#...........
 0bc0 00002458 00019a01 245d0000 00245900  ..$X....$]...$Y.
 0bd0 019a012b 5d000000 24746f59 00019a01  ...+]...$toY....
 0be0 325d0000 00251303 0000019a 013b5d00  2]...%.......;].
 0bf0 00000023 5b000000 0192010d 010c0c00  ...#[...........
 0c00 00245800 01920126 5d000000 24590001  .$X....&]...$Y..
 0c10 92012d5d 00000024 746f5800 01920134  ..-]...$toX....4
 0c20 5d000000 25130300 00019201 3d5d0000  ]...%.......=]..
 0c30 0000233f 06000001 8a010d01 3e0c0000  ..#?........>...
 0c40 24580001 8a01175d 00000024 5900018a  $X.....]...$Y...
 0c50 011e5d00 00002513 03000001 8a01255d  ..]...%.......%]
 0c60 00000000 23390600 00018601 0d01700c  ....#9........p.
 0c70 00002458 00018601 175d0000 00245900  ..$X.....]...$Y.
 0c80 0186011e 5d000000 25130300 00018601  ....]...%.......
 0c90 255d0000 00002395 00000001 7e010d01  %]....#.....~...
 0ca0 a20c0000 24580001 7e01175d 00000024  ....$X..~..]...$
 0cb0 5900017e 011e5d00 00002513 03000001  Y..~..]...%.....
 0cc0 7e01255d 00000000 23700000 00017701  ~.%]....#p....w.
 0cd0 0d01d40c 00002458 00017701 175d0000  ......$X..w..]..
 0ce0 00245900 0177011e 5d000000 25130300  .$Y..w..]...%...
 0cf0 00017701 255d0000 0000234f 00000001  ..w.%]....#O....
 0d00 71010d01 060d0000 24580001 7101175d  q.......$X..q..]
 0d10 00000024 59000171 011e5d00 00002513  ...$Y..q..]...%.
 0d20 03000001 7101255d 00000000 23a60000  ....q.%]....#...
 0d30 00016901 0d01380d 00002458 00016901  ..i...8...$X..i.
 0d40 175d0000 00245900 0169011e 5d000000  .]...$Y..i..]...
 0d50 25130300 00016901 255d0000 0000238f  %.....i.%]....#.
 0d60 00000001 61010d01 6a0d0000 24580001  ....a...j...$X..
 0d70 6101175d 00000024 59000161 011e5d00  a..]...$Y..a..].
 0d80 00002513 03000001 6101255d 00000000  ..%.....a.%]....
 0d90 23400000 00015a01 0d019c0d 00002458  #@....Z.......$X
 0da0 00015a01 175d0000 00245900 015a011e  ..Z..]...$Y..Z..
 0db0 5d000000 25130300 00015a01 255d0000  ]...%.....Z.%]..
 0dc0 000023ac 00000001 54010d01 ce0d0000  ..#.....T.......
 0dd0 24580001 5401175d 00000024 59000154  $X..T..]...$Y..T
 0de0 011e5d00 00002513 03000001 5401255d  ..]...%.....T.%]
 0df0 00000000 23540300 00014d01 0d01000e  ....#T....M.....
 0e00 00002458 00014d01 175d0000 00245900  ..$X..M..]...$Y.
 0e10 014d011e 5d000000 25130300 00014d01  .M..]...%.....M.
 0e20 255d0000 000023fa 04000001 48010d01  %]....#.....H...
 0e30 320e0000 24580001 4801175d 00000024  2...$X..H..]...$
 0e40 59000148 011e5d00 00002513 03000001  Y..H..]...%.....
 0e50 4801255d 00000000 23810000 00014001  H.%]....#.....@.
 0e60 0d01640e 00002458 00014001 175d0000  ..d...$X..@..]..
 0e70 00245900 0140011e 5d000000 25130300  .$Y..@..]...%...
 0e80 00014001 255d0000 000029de 05000001  ..@.%]....).....
 0e90 29010c5d 00000001 8d0e0000 24620001  )..]........$b..
 0ea0 29012b8d 0e000024 70000129 0141930e  ).+....$p..).A..
 0eb0 00000011 04860a00 00110405 0b00002a  ...............*
 0ec0 90030000 01e30d01 eb0e0000 2b620001  ............+b..
 0ed0 e3288d0e 00002c27 06000001 fb065d00  .(....,'......].
 0ee0 00002c47 03000001 fc065d00 00002ddb  ..,G......]...-.
 0ef0 0e00002e 61010000 01000107 5d000000  ....a.......]...
 0f00 00272e61 01000001 1101075d 00000000  .'.a.......]....
 0f10 002aec04 000001a6 0d01290f 00002ff3  .*........).../.
 0f20 04000001 a62e930e 00002c81 02000001  ..........,.....
 0f30 a7065d00 00002ccf 01000001 a8065d00  ..]...,.......].
 0f40 00002c9f 02000001 a9065d00 00000030  ..,.......]....0
 0f50 00020000 016d0658 050000c0 0e000001  .....m.X........
 0f60 9c0e2800 00313e01 00000175 065d0000  ..(..1>....u.]..
 0f70 00000000 00328000 00007117 00003369  .....2....q...3i
 0f80 00017e08 5d000000 34990e00 00480600  ..~.]...4....H..
 0f90 00c00000 00018804 c0110000 35a60e00  ............5...
 0fa0 00200000 0036c000 000037b0 0e000088  . ...6....7.....
 0fb0 00000037 bc0e0000 b4000000 340e2800  ...7........4.(.
 0fc0 00480600 00180100 0001f003 1e100000  .H..............
 0fd0 38720b00 00480600 00480100 00015102  8r...H...H....Q.
 0fe0 39800b00 00480100 003a810b 00003bcd  9....H...:....;.
 0ff0 0b000034 13000070 01000001 a401033c  ...4...p.......<
 1000 fe0b0000 3cf10b00 003ce60b 000035db  ....<....<....5.
 1010 0b0000c8 0000003b 400b0000 40130000  .......;@...@...
 1020 88010000 01950103 35640b00 00e70000  ........5d......
 1030 003c590b 0000354e 0b0000fb 00000000  .<Y...5N........
 1040 00000000 3d400b00 00180800 00100000  ....=@..........
 1050 0001e402 4e100000 35640b00 000e0100  ....N...5d......
 1060 0035590b 00002201 0000354e 0b000035  .5Y..."...5N...5
 1070 01000000 3d400b00 00840800 00100000  ....=@..........
 1080 0001f902 7e100000 35640b00 00480100  ....~...5d...H..
 1090 0035590b 00005d01 0000354e 0b000070  .5Y...]...5N...p
 10a0 01000000 3d640e00 00940800 00400000  ....=d.......@..
 10b0 0001fb15 c5100000 35760e00 00830100  ........5v......
 10c0 0035810e 00009b01 00003e64 0e0000c4  .5........>d....
 10d0 08000010 00000035 760e0000 b3010000  .......5v.......
 10e0 35810e00 00db0100 00000034 640e0000  5..........4d...
 10f0 d4080000 a0010000 01fc1508 11000035  ...............5
 1100 760e0000 03020000 35810e00 003b0200  v.......5....;..
 1110 0039640e 0000c001 00003576 0e000073  .9d.......5v...s
 1120 02000035 810e0000 9b020000 00003fc8  ...5..........?.
 1130 0e000004 09000014 00000023 11000037  ...........#...7
 1140 cd0e0000 c3020000 0040db0e 0000d801  .........@......
 1150 00003a11 000037dc 0e0000d6 02000000  ..:...7.........
 1160 380e2800 00d41300 00000200 0001ea03  8.(.............
 1170 38720b00 00d41300 00200200 00015102  8r....... ....Q.
 1180 39800b00 00200200 003a810b 00003bcd  9.... ...:....;.
 1190 0b0000d4 13000038 02000001 a401033c  .......8.......<
 11a0 fe0b0000 3cf10b00 003ce60b 000035db  ....<....<....5.
 11b0 0b0000e9 0200003b 400b0000 e0130000  .......;@.......
 11c0 50020000 01950103 35640b00 00080300  P.......5d......
 11d0 003c590b 0000354e 0b00001c 03000000  .<Y...5N........
 11e0 00000000 000034eb 0e000058 06000068  ......4....X...h
 11f0 02000001 7b042d13 000035f8 0e00002f  ....{.-...5..../
 1200 03000036 68020000 37040f00 00870300  ...6h...7.......
 1210 0037100f 0000bb03 0000371c 0f0000e4  .7........7.....
 1220 03000034 8e0b0000 60060000 a8020000  ...4....`.......
 1230 01c90363 12000035 bf0b0000 30040000  ...c...5....0...
 1240 35b20b00 00440400 0035a70b 00006404  5....D...5....d.
 1250 0000359c 0b000077 0400003b 400b0000  ..5....w...;@...
 1260 60060000 c0020000 019d0103 35640b00  `...........5d..
 1270 008a0400 0035590b 00009e04 0000354e  .....5Y.......5N
 1280 0b0000b1 04000000 00348e0b 00006806  .........4....h.
 1290 0000d802 000001d5 02c91200 0035bf0b  .............5..
 12a0 0000c404 000035b2 0b0000d9 04000035  ......5........5
 12b0 a70b0000 f9040000 359c0b00 000c0500  ........5.......
 12c0 003b400b 00006806 0000f002 0000019d  .;@...h.........
 12d0 01033564 0b00001f 05000035 590b0000  ..5d.......5Y...
 12e0 34050000 354e0b00 00470500 00000041  4...5N...G.....A
 12f0 8e0b0000 74110000 20000000 01b70335  ....t... ......5
 1300 bf0b0000 5a050000 35b20b00 006e0500  ....Z...5....n..
 1310 0035a70b 00008e05 0000359c 0b0000a1  .5........5.....
 1320 05000042 400b0000 7c110000 10000000  ...B@...|.......
 1330 019d0103 35640b00 00b40500 0035590b  ....5d.......5Y.
 1340 0000c805 0000354e 0b0000db 05000000  ......5N........
 1350 00000034 eb0e0000 e0060000 08030000  ...4............
 1360 017c049a 14000035 f80e0000 ee050000  .|.....5........
 1370 36080300 0037040f 00004606 00003710  6....7....F...7.
 1380 0f000085 06000037 1c0f0000 ae060000  .......7........
 1390 3d8e0b00 00200700 00200000 0001d502  =.... ... ......
 13a0 d0130000 35bf0b00 00110700 0035b20b  ....5........5..
 13b0 00004d07 000035a7 0b00006d 07000035  ..M...5....m...5
 13c0 9c0b0000 80070000 42400b00 00280700  ........B@...(..
 13d0 00100000 00019d01 0335640b 00009307  .........5d.....
 13e0 00003559 0b0000a8 07000035 4e0b0000  ..5Y.......5N...
 13f0 bb070000 00003d8e 0b000018 11000020  ......=........ 
 1400 00000001 b7033614 000035bf 0b0000ce  ......6...5.....
 1410 07000035 b20b0000 e2070000 35a70b00  ...5........5...
 1420 00020800 00359c0b 00001508 00004240  .....5........B@
 1430 0b000020 11000010 00000001 9d010335  ... ...........5
 1440 640b0000 28080000 35590b00 003c0800  d...(...5Y...<..
 1450 00354e0b 00004f08 00000000 418e0b00  .5N...O.....A...
 1460 00601200 00200000 0001c903 35bf0b00  .`... ......5...
 1470 00620800 0035b20b 00007608 000035a7  .b...5....v...5.
 1480 0b000096 08000035 9c0b0000 a9080000  .......5........
 1490 42400b00 00681200 00100000 00019d01  B@...h..........
 14a0 0335640b 0000bc08 00003559 0b0000d0  .5d.......5Y....
 14b0 08000035 4e0b0000 e3080000 00000000  ...5N...........
 14c0 34eb0e00 00480700 00480300 00018205  4....H...H......
 14d0 07160000 35f80e00 00f60800 00364803  ....5........6H.
 14e0 00003704 0f00004e 09000037 100f0000  ..7....N...7....
 14f0 77090000 371c0f00 00950900 003d8e0b  w...7........=..
 1500 00008807 00002000 000001d5 023d1500  ...... ......=..
 1510 0035bf0b 0000ec09 000035b2 0b000001  .5........5.....
 1520 0a000035 a70b0000 210a0000 359c0b00  ...5....!...5...
 1530 00340a00 0042400b 00009007 00001000  .4...B@.........
 1540 0000019d 01033564 0b000047 0a000035  ......5d...G...5
 1550 590b0000 5c0a0000 354e0b00 006f0a00  Y...\...5N...o..
 1560 0000003d 8e0b0000 4c0f0000 20000000  ...=....L... ...
 1570 01b703a3 15000035 bf0b0000 820a0000  .......5........
 1580 35b20b00 00960a00 0035a70b 0000b60a  5........5......
 1590 0000359c 0b0000c9 0a000042 400b0000  ..5........B@...
 15a0 540f0000 10000000 019d0103 35640b00  T...........5d..
 15b0 00dc0a00 0035590b 0000f00a 0000354e  .....5Y.......5N
 15c0 0b000003 0b000000 00418e0b 0000f80f  .........A......
 15d0 00002000 000001c9 0335bf0b 0000160b  .. ......5......
 15e0 000035b2 0b00002a 0b000035 a70b0000  ..5....*...5....
 15f0 4a0b0000 359c0b00 005d0b00 0042400b  J...5....]...B@.
 1600 00000010 00001000 0000019d 01033564  ..............5d
 1610 0b000070 0b000035 590b0000 840b0000  ...p...5Y.......
 1620 354e0b00 00970b00 00000000 0038eb0e  5N...........8..
 1630 0000a807 00007803 00000183 0535f80e  ......x......5..
 1640 0000aa0b 00003678 03000037 040f0000  ......6x...7....
 1650 020c0000 37100f00 00360c00 00371c0f  ....7....6...7..
 1660 0000540c 00003d8e 0b0000e8 07000020  ..T...=........ 
 1670 00000001 d502a616 000035bf 0b0000ab  ..........5.....
 1680 0c000035 b20b0000 c00c0000 35a70b00  ...5........5...
 1690 00e00c00 00359c0b 0000f30c 00004240  .....5........B@
 16a0 0b0000f0 07000010 00000001 9d010335  ...............5
 16b0 640b0000 060d0000 35590b00 001b0d00  d.......5Y......
 16c0 00354e0b 00002e0d 00000000 3d8e0b00  .5N.........=...
 16d0 00f00e00 00200000 0001b703 0c170000  ..... ..........
 16e0 35bf0b00 00410d00 0035b20b 0000550d  5....A...5....U.
 16f0 000035a7 0b000075 0d000035 9c0b0000  ..5....u...5....
 1700 880d0000 42400b00 00f80e00 00100000  ....B@..........
 1710 00019d01 0335640b 00009b0d 00003559  .....5d.......5Y
 1720 0b0000af 0d000035 4e0b0000 c20d0000  .......5N.......
 1730 0000418e 0b000048 10000020 00000001  ..A....H... ....
 1740 c90335bf 0b0000d5 0d000035 b20b0000  ..5........5....
 1750 e90d0000 35a70b00 00090e00 00359c0b  ....5........5..
 1760 00001c0e 00004240 0b000050 10000010  ......B@...P....
 1770 00000001 9d010335 640b0000 2f0e0000  .......5d.../...
 1780 35590b00 00430e00 00354e0b 0000560e  5Y...C...5N...V.
 1790 00000000 00000034 0e280000 58050000  .......4.(..X...
 17a0 00000000 017002fd 17000038 720b0000  .....p.....8r...
 17b0 58050000 28000000 01510239 800b0000  X...(....Q.9....
 17c0 28000000 37810b00 00690e00 003bcd0b  (...7....i...;..
 17d0 00008c05 00004800 000001a4 01033cfe  ......H.......<.
 17e0 0b00003c f10b0000 3ce60b00 0035db0b  ...<....<....5..
 17f0 00007d0e 00003b40 0b00008c 05000060  ..}...;@.......`
 1800 00000001 95010335 640b0000 9c0e0000  .......5d.......
 1810 3c590b00 00354e0b 0000b00e 00000000  <Y...5N.........
 1820 0000003d 720b0000 44090000 24000000  ...=r...D...$...
 1830 018d0478 1800003e 800b0000 44090000  ...x...>....D...
 1840 24000000 3a810b00 0042cd0b 00004409  $...:....B....D.
 1850 00002000 000001a4 01033cfe 0b00003c  .. .......<....<
 1860 f10b0000 3ce60b00 0035db0b 0000c30e  ....<....5......
 1870 00003b40 0b000048 090000a8 03000001  ..;@...H........
 1880 95010335 640b0000 e20e0000 3c590b00  ...5d.......<Y..
 1890 00354e0b 0000f60e 00000000 00003432  .5N...........42
 18a0 0e000078 090000c0 03000001 9104b019  ...x............
 18b0 00003c56 0e00003c 4b0e0000 3c400e00  ..<V...<K...<@..
 18c0 00438e0b 00007809 00002004 00000141  .C....x... ....A
 18d0 0102f618 00003cbf 0b00003c b20b0000  ......<....<....
 18e0 35a70b00 00090f00 003c9c0b 00003b40  5........<....;@
 18f0 0b000078 09000020 04000001 9d010335  ...x... .......5
 1900 640b0000 590f0000 35590b00 006e0f00  d...Y...5Y...n..
 1910 00354e0b 0000b20f 00000000 438e0b00  .5N.........C...
 1920 00a00900 00580400 00014201 02511900  .....X....B..Q..
 1930 003cbf0b 00003cb2 0b000035 a70b0000  .<....<....5....
 1940 c60f0000 3c9c0b00 003b400b 0000a009  ....<....;@.....
 1950 00005804 0000019d 01033564 0b0000f2  ..X.......5d....
 1960 0f000035 590b0000 c60f0000 354e0b00  ...5Y.......5N..
 1970 00071000 00000043 400b0000 ac090000  .......C@.......
 1980 80040000 01430102 82190000 35640b00  .....C......5d..
 1990 001b1000 0035590b 00003010 0000354e  .....5Y...0...5N
 19a0 0b000044 10000000 3b400b00 00b00900  ...D....;@......
 19b0 00980400 00014401 0235640b 00005810  ......D..5d...X.
 19c0 00003559 0b00006d 10000035 4e0b0000  ..5Y...m...5N...
 19d0 81100000 00003400 0e0000b4 090000b0  ......4.........
 19e0 04000001 92049e1a 00003524 0e000095  ..........5$....
 19f0 10000035 190e0000 b7100000 350e0e00  ...5........5...
 1a00 00d71000 00438e0b 0000b409 0000f804  .....C..........
 1a10 00000149 0102461a 000035bf 0b000095  ...I..F...5.....
 1a20 10000035 b20b0000 f7100000 35a70b00  ...5........5...
 1a30 00171100 00359c0b 0000d710 00003b40  .....5........;@
 1a40 0b0000b4 090000f8 04000001 9d010335  ...............5
 1a50 640b0000 73110000 35590b00 00881100  d...s...5Y......
 1a60 00354e0b 0000cc11 00000000 3bcd0b00  .5N.........;...
 1a70 00c80900 00300500 00014a01 023cfe0b  .....0....J..<..
 1a80 00003cf1 0b00003c e60b0000 35db0b00  ..<....<....5...
 1a90 00e01100 003b400b 0000c809 00003005  .....;@.......0.
 1aa0 00000195 01033564 0b00001c 12000035  ......5d.......5
 1ab0 590b0000 31120000 354e0b00 00451200  Y...1...5N...E..
 1ac0 00000000 34ce0d00 00d00900 00500500  ....4........P..
 1ad0 00019304 d61b0000 3cf20d00 003ce70d  ........<....<..
 1ae0 00003cdc 0d000043 8e0b0000 d0090000  ..<....C........
 1af0 c0050000 014e0102 1c1b0000 3cbf0b00  .....N......<...
 1b00 003cb20b 000035a7 0b000067 1200003c  .<....5....g...<
 1b10 9c0b0000 3b400b00 00d00900 00c00500  ....;@..........
 1b20 00019d01 0335640b 0000b712 00003559  .....5d.......5Y
 1b30 0b0000cc 12000035 4e0b0000 10130000  .......5N.......
 1b40 0000438e 0b000094 0a0000f8 05000001  ..C.............
 1b50 4f010277 1b00003c bf0b0000 3cb20b00  O..w...<....<...
 1b60 0035a70b 00002513 00003c9c 0b00003b  .5....%...<....;
 1b70 400b0000 940a0000 f8050000 019d0103  @...............
 1b80 35640b00 00691300 0035590b 00002513  5d...i...5Y...%.
 1b90 0000354e 0b00007e 13000000 0044400b  ..5N...~.....D@.
 1ba0 0000d00a 00000c00 00000150 0102a81b  ...........P....
 1bb0 00003564 0b000093 13000035 590b0000  ..5d.......5Y...
 1bc0 a8130000 354e0b00 00bc1300 00004240  ....5N........B@
 1bd0 0b0000dc 0a00000c 00000001 51010235  ............Q..5
 1be0 640b0000 d1130000 35590b00 00e61300  d.......5Y......
 1bf0 00354e0b 0000fa13 00000000 349c0d00  .5N.........4...
 1c00 00e80a00 00280600 00019404 1f1d0000  .....(..........
 1c10 35aa0d00 000f1400 0035b50d 00003114  5........5....1.
 1c20 000035c0 0d000051 14000043 8e0b0000  ..5....Q...C....
 1c30 e80a0000 68060000 01550102 6c1c0000  ....h....U..l...
 1c40 35bf0b00 00511400 0035b20b 00007314  5....Q...5....s.
 1c50 000035a7 0b000093 14000035 9c0b0000  ..5........5....
 1c60 0f140000 3b400b00 00e80a00 00680600  ....;@.......h..
 1c70 00019d01 0335640b 0000cb14 00003559  .....5d.......5Y
 1c80 0b0000e0 14000035 4e0b0000 00150000  .......5N.......
 1c90 0000438e 0b000000 0b000080 06000001  ..C.............
 1ca0 560102c7 1c00003c bf0b0000 3cb20b00  V......<....<...
 1cb0 0035a70b 00001515 00003c9c 0b00003b  .5........<....;
 1cc0 400b0000 000b0000 80060000 019d0103  @...............
 1cd0 35640b00 004d1500 0035590b 00006215  5d...M...5Y...b.
 1ce0 0000354e 0b000082 15000000 003b8e0b  ..5N.........;..
 1cf0 0000140b 0000a006 00000157 01023cbf  ...........W..<.
 1d00 0b00003c b20b0000 35a70b00 00971500  ...<....5.......
 1d10 003c9c0b 00003b40 0b000014 0b0000a0  .<....;@........
 1d20 06000001 9d010335 640b0000 db150000  .......5d.......
 1d30 35590b00 00f01500 00354e0b 00001c16  5Y.......5N.....
 1d40 00000000 00346a0d 00003c0b 0000c806  .....4j...<.....
 1d50 00000195 04811e00 003c780d 00003c83  .........<x...<.
 1d60 0d00003c 8e0d0000 438e0b00 003c0b00  ...<....C....<..
 1d70 00200700 00015b01 029d1d00 003cbf0b  . ....[......<..
 1d80 00003cb2 0b000035 a70b0000 31160000  ..<....5....1...
 1d90 3c9c0b00 003b400b 00003c0b 00002007  <....;@...<... .
 1da0 0000019d 01033564 0b000081 16000035  ......5d.......5
 1db0 590b0000 96160000 354e0b00 00da1600  Y.......5N......
 1dc0 00000043 cd0b0000 780b0000 50070000  ...C....x...P...
 1dd0 015c0102 f81d0000 3cfe0b00 003cf10b  .\......<....<..
 1de0 00003ce6 0b000035 db0b0000 ef160000  ..<....5........
 1df0 3b400b00 00780b00 00500700 00019501  ;@...x...P......
 1e00 0335640b 00001e17 00003559 0b000033  .5d.......5Y...3
 1e10 17000035 4e0b0000 47170000 000043cd  ...5N...G.....C.
 1e20 0b000090 0b000068 07000001 5d010253  .......h....]..S
 1e30 1e00003c fe0b0000 3cf10b00 003ce60b  ...<....<....<..
 1e40 000035db 0b000069 1700003b 400b0000  ..5....i...;@...
 1e50 900b0000 68070000 01950103 35640b00  ....h.......5d..
 1e60 008b1700 0035590b 0000a017 0000354e  .....5Y.......5N
 1e70 0b000069 17000000 0042400b 0000a80b  ...i.....B@.....
 1e80 00000c00 0000015e 01023564 0b0000b4  .......^..5d....
 1e90 17000035 590b0000 c9170000 354e0b00  ...5Y.......5N..
 1ea0 00dd1700 00000034 380d0000 b40b0000  .......48.......
 1eb0 80070000 0196042c 20000035 460d0000  ......., ..5F...
 1ec0 f2170000 35510d00 00071800 00355c0d  ....5Q.......5\.
 1ed0 00001b18 0000438e 0b0000b4 0b0000e0  ......C.........
 1ee0 07000001 62010217 1f000035 bf0b0000  ....b......5....
 1ef0 30180000 35b20b00 00521800 0035a70b  0...5....R...5..
 1f00 00006618 0000359c 0b0000b6 1800003b  ..f...5........;
 1f10 400b0000 b40b0000 e0070000 019d0103  @...............
 1f20 35640b00 00d81800 0035590b 0000ed18  5d.......5Y.....
 1f30 0000354e 0b000031 19000000 00438e0b  ..5N...1.....C..
 1f40 0000f00b 00001008 00000163 0102721f  ...........c..r.
 1f50 00003cbf 0b00003c b20b0000 35a70b00  ..<....<....5...
 1f60 00461900 003c9c0b 00003b40 0b0000f0  .F...<....;@....
 1f70 0b000010 08000001 9d010335 640b0000  ...........5d...
 1f80 72190000 35590b00 00871900 00354e0b  r...5Y.......5N.
 1f90 0000a719 00000000 438e0b00 00080c00  ........C.......
 1fa0 00280800 00016401 02cd1f00 003cbf0b  .(....d......<..
 1fb0 00003cb2 0b000035 a70b0000 bc190000  ..<....5........
 1fc0 3c9c0b00 003b400b 0000080c 00002808  <....;@.......(.
 1fd0 0000019d 01033564 0b0000dc 19000035  ......5d.......5
 1fe0 590b0000 bc190000 354e0b00 00f11900  Y.......5N......
 1ff0 00000044 400b0000 200c0000 0c000000  ...D@... .......
 2000 01650102 fe1f0000 35640b00 00061a00  .e......5d......
 2010 0035590b 00001b1a 0000354e 0b00002f  .5Y.......5N.../
 2020 1a000000 42400b00 002c0c00 000c0000  ....B@...,......
 2030 00016601 0235640b 0000441a 00003559  ..f..5d...D...5Y
 2040 0b000059 1a000035 4e0b0000 6d1a0000  ...Y...5N...m...
 2050 00003406 0d000038 0c000040 08000001  ..4....8...@....
 2060 9804d721 00003514 0d000082 1a000035  ...!..5........5
 2070 1f0d0000 961a0000 352a0d00 00aa1a00  ........5*......
 2080 00438e0b 0000380c 0000a808 0000016a  .C....8........j
 2090 0102c220 000035bf 0b0000bf 1a000035  ... ..5........5
 20a0 b20b0000 e11a0000 35a70b00 00f61a00  ........5.......
 20b0 00359c0b 00003e1b 00003b40 0b000038  .5....>...;@...8
 20c0 0c0000a8 08000001 9d010335 640b0000  ...........5d...
 20d0 5e1b0000 35590b00 00731b00 00354e0b  ^...5Y...s...5N.
 20e0 0000ae1b 00000000 438e0b00 00680c00  ........C....h..
 20f0 00d00800 00016b01 021d2100 003cbf0b  ......k...!..<..
 2100 00003cb2 0b000035 a70b0000 c21b0000  ..<....5........
 2110 3c9c0b00 003b400b 0000680c 0000d008  <....;@...h.....
 2120 0000019d 01033564 0b00000a 1c000035  ......5d.......5
 2130 590b0000 1f1c0000 354e0b00 005a1c00  Y.......5N...Z..
 2140 00000043 8e0b0000 980c0000 f8080000  ...C............
 2150 016c0102 78210000 3cbf0b00 003cb20b  .l..x!..<....<..
 2160 000035a7 0b00006f 1c00003c 9c0b0000  ..5....o...<....
 2170 3b400b00 00980c00 00f80800 00019d01  ;@..............
 2180 0335640b 0000911c 00003559 0b00006f  .5d.......5Y...o
 2190 1c000035 4e0b0000 a61c0000 00004440  ...5N.........D@
 21a0 0b0000b0 0c00000c 00000001 6d0102a9  ............m...
 21b0 21000035 640b0000 bb1c0000 35590b00  !..5d.......5Y..
 21c0 00d01c00 00354e0b 0000e51c 00000042  .....5N........B
 21d0 400b0000 bc0c0000 0c000000 016e0102  @............n..
 21e0 35640b00 00f91c00 0035590b 00000e1d  5d.......5Y.....
 21f0 0000354e 0b000023 1d000000 0034d40c  ..5N...#.....4..
 2200 0000c80c 00001009 00000199 04202300  ............. #.
 2210 0035e20c 0000381d 000035ed 0c00005a  .5....8...5....Z
 2220 1d000035 f80c0000 7a1d0000 43cd0b00  ...5....z...C...
 2230 00c80c00 00600900 00017201 026d2200  .....`....r..m".
 2240 0035fe0b 00007a1d 000035f1 0b00009c  .5....z...5.....
 2250 1d000035 e60b0000 5a1d0000 35db0b00  ...5....Z...5...
 2260 00be1d00 003b400b 0000c80c 00006009  .....;@.......`.
 2270 00000195 01033564 0b000007 1e000035  ......5d.......5
 2280 590b0000 1c1e0000 354e0b00 00301e00  Y.......5N...0..
 2290 00000043 cd0b0000 ec0c0000 80090000  ...C............
 22a0 01730102 c8220000 3cfe0b00 003cf10b  .s..."..<....<..
 22b0 00003ce6 0b000035 db0b0000 5f1e0000  ..<....5...._...
 22c0 3b400b00 00ec0c00 00800900 00019501  ;@..............
 22d0 0335640b 0000a81e 00003559 0b0000bd  .5d.......5Y....
 22e0 1e000035 4e0b0000 d21e0000 00003b8e  ...5N.........;.
 22f0 0b000010 0d000040 09000001 7401023c  .......@....t..<
 2300 bf0b0000 3cb20b00 0035a70b 0000011f  ....<....5......
 2310 00003c9c 0b00003b 400b0000 100d0000  ..<....;@.......
 2320 40090000 019d0103 35640b00 004a1f00  @.......5d...J..
 2330 0035590b 00005f1f 0000354e 0b00008e  .5Y..._...5N....
 2340 1f000000 000034a2 0c000034 0d0000a0  ......4....4....
 2350 09000001 9a045824 00003cc6 0c00003c  ......X$..<....<
 2360 bb0c0000 3cb00c00 00438e0b 0000340d  ....<....C....4.
 2370 0000080a 00000178 01029e23 00003cbf  .......x...#..<.
 2380 0b00003c b20b0000 35a70b00 00a31f00  ...<....5.......
 2390 003c9c0b 00003b40 0b000034 0d000008  .<....;@...4....
 23a0 0a000001 9d010335 640b0000 f81f0000  .......5d.......
 23b0 35590b00 000d2000 00354e0b 00005520  5Y.... ..5N...U 
 23c0 00000000 438e0b00 00700d00 00380a00  ....C....p...8..
 23d0 00017901 02f92300 003cbf0b 00003cb2  ..y...#..<....<.
 23e0 0b000035 a70b0000 6a200000 3c9c0b00  ...5....j ..<...
 23f0 003b400b 0000700d 0000380a 0000019d  .;@...p...8.....
 2400 01033564 0b0000b2 20000035 590b0000  ..5d.... ..5Y...
 2410 6a200000 354e0b00 00c72000 00000044  j ..5N.... ....D
 2420 400b0000 ac0d0000 0c000000 017a0102  @............z..
 2430 2a240000 35640b00 00dc2000 0035590b  *$..5d.... ..5Y.
 2440 0000f120 0000354e 0b000006 21000000  ... ..5N....!...
 2450 42400b00 00b80d00 000c0000 00017b01  B@............{.
 2460 0235640b 00001b21 00003559 0b000030  .5d....!..5Y...0
 2470 21000035 4e0b0000 45210000 00003470  !..5N...E!....4p
 2480 0c0000c4 0d000068 0a000001 9b040326  .......h.......&
 2490 0000357e 0c00005a 21000035 890c0000  ..5~...Z!..5....
 24a0 6f210000 35940c00 00832100 0043cd0b  o!..5.....!..C..
 24b0 0000c40d 0000c80a 0000017f 0102ee24  ...............$
 24c0 000035fe 0b000098 21000035 f10b0000  ..5.....!..5....
 24d0 ba210000 35e60b00 00cf2100 0035db0b  .!..5.....!..5..
 24e0 0000ef21 00003b40 0b0000c4 0d0000c8  ...!..;@........
 24f0 0a000001 95010335 640b0000 2b220000  .......5d...+"..
 2500 35590b00 00402200 00354e0b 00005422  5Y...@"..5N...T"
 2510 00000000 43cd0b00 00e80d00 00e80a00  ....C...........
 2520 00018001 02492500 003cfe0b 00003cf1  .....I%..<....<.
 2530 0b00003c e60b0000 35db0b00 00832200  ...<....5.....".
 2540 003b400b 0000e80d 0000e80a 00000195  .;@.............
 2550 01033564 0b0000bf 22000035 590b0000  ..5d...."..5Y...
 2560 d4220000 354e0b00 00e92200 00000043  ."..5N...."....C
 2570 cd0b0000 0c0e0000 080b0000 01810102  ................
 2580 a4250000 3cfe0b00 003cf10b 00003ce6  .%..<....<....<.
 2590 0b000035 db0b0000 18230000 3b400b00  ...5.....#..;@..
 25a0 000c0e00 00080b00 00019501 0335640b  .............5d.
 25b0 00004723 00003559 0b00005c 23000035  ..G#..5Y...\#..5
 25c0 4e0b0000 18230000 00004340 0b00002c  N....#....C@...,
 25d0 0e000030 0b000001 820102d5 25000035  ...0........%..5
 25e0 640b0000 71230000 35590b00 00862300  d...q#..5Y....#.
 25f0 00354e0b 00009b23 00000042 400b0000  .5N....#...B@...
 2600 3c0e0000 0c000000 01830102 35640b00  <...........5d..
 2610 00b02300 0035590b 0000c523 0000354e  ..#..5Y....#..5N
 2620 0b0000da 23000000 00340c0c 0000540e  ....#....4....T.
 2630 0000480b 0000019d 09962700 003c1a0c  ..H.......'..<..
 2640 00003c25 0c00003c 300c0000 43cd0b00  ..<%...<0...C...
 2650 00540e00 00a80b00 00018b01 02812600  .T............&.
 2660 003cfe0b 00003cf1 0b00003c e60b0000  .<....<....<....
 2670 35db0b00 00ef2300 003b400b 0000540e  5.....#..;@...T.
 2680 0000a80b 00000195 01033564 0b00002b  ..........5d...+
 2690 24000035 590b0000 40240000 354e0b00  $..5Y...@$..5N..
 26a0 00542400 00000043 cd0b0000 780e0000  .T$....C....x...
 26b0 c80b0000 018c0102 dc260000 3cfe0b00  .........&..<...
 26c0 003cf10b 00003ce6 0b000035 db0b0000  .<....<....5....
 26d0 83240000 3b400b00 00780e00 00c80b00  .$..;@...x......
 26e0 00019501 0335640b 0000bf24 00003559  .....5d....$..5Y
 26f0 0b0000d4 24000035 4e0b0000 e8240000  ....$..5N....$..
 2700 000043cd 0b00009c 0e0000e8 0b000001  ..C.............
 2710 8d010237 2700003c fe0b0000 3cf10b00  ...7'..<....<...
 2720 003ce60b 000035db 0b000017 2500003b  .<....5.....%..;
 2730 400b0000 9c0e0000 e80b0000 01950103  @...............
 2740 35640b00 00462500 0035590b 00005b25  5d...F%..5Y...[%
 2750 0000354e 0b000017 25000000 0044400b  ..5N....%....D@.
 2760 0000c00e 00000c00 0000018e 01026827  ..............h'
 2770 00003564 0b00006f 25000035 590b0000  ..5d...o%..5Y...
 2780 84250000 354e0b00 00982500 00004240  .%..5N....%...B@
 2790 0b0000cc 0e000010 00000001 8f010235  ...............5
 27a0 640b0000 ad250000 35590b00 00c22500  d....%..5Y....%.
 27b0 00354e0b 0000d625 00000000 383e0c00  .5N....%....8>..
 27c0 00b01200 00080c00 00019c1b 3c620c00  ............<b..
 27d0 003c570c 00003c4c 0c00003b 8e0b0000  .<W...<L...;....
 27e0 b0120000 080c0000 01870102 3cbf0b00  ............<...
 27f0 003cb20b 000035a7 0b0000eb 2500003c  .<....5.....%..<
 2800 9c0b0000 3b400b00 00b01200 00080c00  ....;@..........
 2810 00019d01 0335640b 00003b26 00003559  .....5d...;&..5Y
 2820 0b000050 26000035 4e0b0000 94260000  ...P&..5N....&..
 2830 00000000 45bf0300 0001500d 0100      ....E.....P...  
Contents of section .debug_abbrev:
 0000 01110010 06110112 01030e1b 0e250e13  .............%..
 0010 05000000 01110125 0e130b03 0e1b0e55  .......%.......U
 0020 17110110 17000002 24000b0b 3e0b030e  ........$...>...
 0030 00000324 000b0b3e 0b030800 00043500  ...$...>......5.
 0040 49130000 05260049 13000006 1600030e  I....&.I........
 0050 3a0b3b0b 390b4913 00000716 00030e3a  :.;.9.I........:
 0060 0b3b0539 0b491300 00081701 0b0b3a0b  .;.9.I........:.
 0070 3b0b390b 01130000 090d0003 0e3a0b3b  ;.9..........:.;
 0080 0b390b49 1300000a 01014913 01130000  .9.I......I.....
 0090 0b210049 132f0b00 000c1301 0b0b3a0b  .!.I./........:.
 00a0 3b0b390b 01130000 0d0d0003 0e3a0b3b  ;.9..........:.;
 00b0 0b390b49 13380b00 000e0f00 0b0b0000  .9.I.8..........
 00c0 0f130103 0e0b0b3a 0b3b0b39 0b011300  .......:.;.9....
 00d0 00100d00 03083a0b 3b0b390b 4913380b  ......:.;.9.I.8.
 00e0 0000110f 000b0b49 13000012 1301030e  .......I........
 00f0 0b053a0b 3b0b390b 01130000 130d0003  ..:.;.9.........
 0100 0e3a0b3b 0b390b49 13380500 00141500  .:.;.9.I.8......
 0110 27190000 15150127 19491301 13000016  '......'.I......
 0120 05004913 00001713 01030e0b 053a0b3b  ..I..........:.;
 0130 05390b01 13000018 0d00030e 3a0b3b05  .9..........:.;.
 0140 390b4913 380b0000 190d0003 0e3a0b3b  9.I.8........:.;
 0150 05390b49 13380500 001a1301 030e0b0b  .9.I.8..........
 0160 3a0b3b05 390b0113 00001b13 010b0b3a  :.;.9..........:
 0170 0b3b0539 0b011300 001c1701 0b0b3a0b  .;.9..........:.
 0180 3b05390b 01130000 1d0d0003 0e3a0b3b  ;.9..........:.;
 0190 05390b49 1300001e 1300030e 3c190000  .9.I........<...
 01a0 1f150127 19011300 00203400 030e3a0b  ...'..... 4...:.
 01b0 3b05390b 49133f19 3c190000 21340003  ;.9.I.?.<...!4..
 01c0 0e3a0b3b 0b390b49 133f193c 19000022  .:.;.9.I.?.<..."
 01d0 3400030e 3a0b3b0b 390b4913 3f190218  4...:.;.9.I.?...
 01e0 0000232e 01030e3a 0b3b0539 0b271920  ..#....:.;.9.'. 
 01f0 0b011300 00240500 03083a0b 3b05390b  .....$....:.;.9.
 0200 49130000 25050003 0e3a0b3b 05390b49  I...%....:.;.9.I
 0210 13000026 2e01030e 3a0b3b05 390b200b  ...&....:.;.9. .
 0220 01130000 270b0100 00283400 03083a0b  ....'....(4...:.
 0230 3b05390b 49130000 292e0103 0e3a0b3b  ;.9.I...)....:.;
 0240 05390b27 19491320 0b011300 002a2e01  .9.'.I. .....*..
 0250 030e3a0b 3b0b390b 2719200b 01130000  ..:.;.9.'. .....
 0260 2b050003 083a0b3b 0b390b49 1300002c  +....:.;.9.I...,
 0270 3400030e 3a0b3b0b 390b4913 00002d0b  4...:.;.9.I...-.
 0280 01011300 002e3400 030e3a0b 3b05390b  ......4...:.;.9.
 0290 49130000 2f050003 0e3a0b3b 0b390b49  I.../....:.;.9.I
 02a0 13000030 2e013f19 030e3a0b 3b0b390b  ...0..?...:.;.9.
 02b0 11011206 40189742 19011300 00313400  ....@..B.....14.
 02c0 030e3a0b 3b0b390b 49130217 0000320b  ..:.;.9.I.....2.
 02d0 01551701 13000033 34000308 3a0b3b0b  .U.....34...:.;.
 02e0 390b4913 0000341d 01311352 01551758  9.I...4..1.R.U.X
 02f0 0b590b57 0b011300 00350500 31130217  .Y.W.....5..1...
 0300 0000360b 01551700 00373400 31130217  ..6..U...74.1...
 0310 0000381d 01311352 01551758 0b590b57  ..8..1.R.U.X.Y.W
 0320 0b000039 0b013113 55170000 3a340031  ...9..1.U...:4.1
 0330 1300003b 1d013113 52015517 580b5905  ...;..1.R.U.X.Y.
 0340 570b0000 3c050031 1300003d 1d013113  W...<..1...=..1.
 0350 11011206 580b590b 570b0113 00003e0b  ....X.Y.W.....>.
 0360 01311311 01120600 003f0b01 31131101  .1.......?..1...
 0370 12060113 0000400b 01311355 17011300  ......@..1.U....
 0380 00411d01 31131101 1206580b 590b570b  .A..1.....X.Y.W.
 0390 0000421d 01311311 01120658 0b590557  ..B..1.....X.Y.W
 03a0 0b000043 1d013113 52015517 580b5905  ...C..1.R.U.X.Y.
 03b0 570b0113 0000441d 01311311 01120658  W.....D..1.....X
 03c0 0b590557 0b011300 00452e00 030e3a0b  .Y.W.....E....:.
 03d0 3b0b390b 200b0000 00                 ;.9. ....       
Contents of section .debug_aranges:
 0000 1c000000 02000000 00000400 00000000  ................
 0010 00000000 10000000 00000000 00000000  ................
 0020 1c000000 02002600 00000400 00000000  ......&.........
 0030 58050000 c00e0000 00000000 00000000  X...............
Contents of section .debug_str:
 0000 7372632f 696e6974 2e73002f 686f6d65  src/init.s./home
 0010 2f737475 64656e74 2f446573 6b746f70  /student/Desktop
 0020 2f506f6e 6700474e 55204153 20322e33  /Pong.GNU AS 2.3
 0030 312e3100 5f64736f 5f68616e 646c6500  1.1._dso_handle.
 0040 64726177 45005647 5f434f4c 4f520064  drawE.VG_COLOR.d
 0050 72617749 005f7369 7a650064 7261775f  rawI._size.draw_
 0060 686f7269 7a6f6e74 616c5f6c 696e6500  horizontal_line.
 0070 64726177 4e007372 632f6d61 696e2e63  drawN.src/main.c
 0080 00647261 7750005f 72616e64 34380064  .drawP._rand48.d
 0090 72617752 00647261 7753005f 656d6572  rawR.drawS._emer
 00a0 67656e63 79006472 61775700 64726177  gency.drawW.draw
 00b0 59004247 5f434f4c 4f52005f 64617461  Y.BG_COLOR._data
 00c0 005f7763 72746f6d 625f7374 61746500  ._wcrtomb_state.
 00d0 5f776373 72746f6d 62735f73 74617465  _wcsrtombs_state
 00e0 00647261 775f6261 636b6772 6f756e64  .draw_background
 00f0 006c6f6e 67206c6f 6e672075 6e736967  .long long unsig
 0100 6e656420 696e7400 5f6c6266 73697a65  ned int._lbfsize
 0110 005f5f6c 6f63616c 655f7400 42414c4c  .__locale_t.BALL
 0120 5f535045 4544005f 6d627274 6f77635f  _SPEED._mbrtowc_
 0130 73746174 65005f77 63746f6d 625f7374  state._wctomb_st
 0140 61746500 5f5f746d 5f736563 006c6f6e  ate.__tm_sec.lon
 0150 67206c6f 6e672069 6e74005f 75627566  g long int._ubuf
 0160 00686974 5f6c6f63 6174696f 6e005f62  .hit_location._b
 0170 61736500 5f5f746d 5f686f75 72005f5f  ase.__tm_hour.__
 0180 7366005f 6f6e5f65 7869745f 61726773  sf._on_exit_args
 0190 00706164 646c6531 00706164 646c6532  .paddle1.paddle2
 01a0 005f636f 6f6b6965 005f5f73 676c7565  ._cookie.__sglue
 01b0 00425554 544f4e53 005f666c 61677300  .BUTTONS._flags.
 01c0 5f69735f 63786100 5f737464 696e0073  _is_cxa._stdin.s
 01d0 77745f76 616c005f 626c6b73 697a6500  wt_val._blksize.
 01e0 64726177 5f646f74 0075705f 62746e00  draw_dot.up_btn.
 01f0 5f637674 62756600 5f6f6666 73657400  _cvtbuf._offset.
 0200 6d61696e 005f6d62 7372746f 7763735f  main._mbsrtowcs_
 0210 73746174 65005f6d 62726c65 6e5f7374  state._mbrlen_st
 0220 61746500 5f666e61 72677300 73636f72  ate._fnargs.scor
 0230 65005f66 6e73005f 7369676e 005f666c  e._fns._sign._fl
 0240 6f636b5f 74005f73 74646572 72005f42  ock_t._stderr._B
 0250 6967696e 74005f67 616d6d61 5f736967  igint._gamma_sig
 0260 6e67616d 005f7265 6164005f 72657375  ngam._read._resu
 0270 6c745f6b 005f5f74 6d005f5f 77636862  lt_k.__tm.__wchb
 0280 0062746e 5f76616c 005f7374 646f7574  .btn_val._stdout
 0290 005f6376 746c656e 005f6669 6c650070  ._cvtlen._file.p
 02a0 5f647900 56475f41 44445200 5f6e696f  _dy.VG_ADDR._nio
 02b0 62730073 686f7274 20756e73 69676e65  bs.short unsigne
 02c0 6420696e 74005f61 74657869 7430005f  d int._atexit0._
 02d0 7369676e 616c5f62 7566005f 61736374  signal_buf._asct
 02e0 696d655f 62756600 5f726573 756c7400  ime_buf._result.
 02f0 5f5f7763 6800656e 7669726f 6e007769  __wch.environ.wi
 0300 6e745f74 005f6c6f 636b005f 666c6167  nt_t._lock._flag
 0310 73320063 6f6c6f72 00474e55 20433137  s2.color.GNU C17
 0320 20382e32 2e30202d 6d617263 683d7276   8.2.0 -march=rv
 0330 33326920 2d6d6162 693d696c 70333220  32i -mabi=ilp32 
 0340 2d67202d 4f330063 6f6c6c69 73696f6e  -g -O3.collision
 0350 5f703200 64726177 41006f70 74726573  _p2.drawA.optres
 0360 6574005f 77726974 65005f5f 746d5f79  et._write.__tm_y
 0370 65617200 5f6e6d61 6c6c6f63 006f7074  ear._nmalloc.opt
 0380 61726700 6c6f6e67 20646f75 626c6500  arg.long double.
 0390 6d6f7665 5f62616c 6c006f70 74696e64  move_ball.optind
 03a0 005f6e65 78746600 5f5f746d 5f6d6f6e  ._nextf.__tm_mon
 03b0 005f6174 65786974 005f5f73 64696469  ._atexit.__sdidi
 03c0 6e697400 5f6f6666 5f74005f 66726565  nit._off_t._free
 03d0 6c697374 005f4c4f 434b5f52 45435552  list._LOCK_RECUR
 03e0 53495645 5f540064 7261775f 76657274  SIVE_T.draw_vert
 03f0 6963616c 5f6c696e 6500756e 7369676e  ical_line.unsign
 0400 65642063 68617200 5f6e6577 005f685f  ed char._new._h_
 0410 6572726e 6f007368 6f727420 696e7400  errno.short int.
 0420 5f5f746d 5f796461 79005f5f 73627566  __tm_yday.__sbuf
 0430 005f696f 6273005f 5f46494c 45005f6d  ._iobs.__FILE._m
 0440 62737461 74655f74 005f5f73 46494c45  bstate_t.__sFILE
 0450 005f6d62 73746174 65005f72 616e645f  ._mbstate._rand_
 0460 6e657874 005f6d62 6c656e5f 73746174  next._mblen_stat
 0470 65005f69 6e63005f 696e6400 5f6c6f63  e._inc._ind._loc
 0480 616c6500 5f5f636c 65616e75 70005f75  ale.__cleanup._u
 0490 6e737065 63696669 65645f6c 6f63616c  nspecified_local
 04a0 655f696e 666f005f 6d617877 6473005f  e_info._maxwds._
 04b0 7265656e 74005f73 65656400 5f5f636f  reent._seed.__co
 04c0 756e7400 5f5f7661 6c756500 5f736565  unt.__value._see
 04d0 6b005f66 706f735f 74005357 49544348  k._fpos_t.SWITCH
 04e0 4553005f 5f746d5f 6d696e00 75706461  ES.__tm_min.upda
 04f0 74655f70 6164646c 65006472 61774c00  te_paddle.drawL.
 0500 62616c6c 5f73005f 666e7479 70657300  ball_s._fntypes.
 0510 62616c6c 5f74006f 70746572 72005f6d  ball_t.opterr._m
 0520 756c7400 5f737472 746f6b5f 6c617374  ult._strtok_last
 0530 00646f77 6e5f6274 6e005f61 6464005f  .down_btn._add._
 0540 5f554c6f 6e67005f 67657464 6174655f  _ULong._getdate_
 0550 65727200 70616464 6c655f73 00706164  err.paddle_s.pad
 0560 646c655f 74004241 4c4c5f43 4f4c4f52  dle_t.BALL_COLOR
 0570 005f676c 6f62616c 5f696d70 7572655f  ._global_impure_
 0580 70747200 5f756e75 7365645f 72616e64  ptr._unused_rand
 0590 00505f4e 4f524d5f 434f4c4f 52005f77  .P_NORM_COLOR._w
 05a0 6473005f 5f746d5f 77646179 005f676c  ds.__tm_wday._gl
 05b0 7565005f 7373697a 655f7400 5f6c3634  ue._ssize_t._l64
 05c0 615f6275 66005f73 69675f66 756e6300  a_buf._sig_func.
 05d0 5f6e6275 66005f75 6e757365 64006368  _nbuf._unused.ch
 05e0 6b5f636f 6c6c6973 696f6e00 5f5f746d  k_collision.__tm
 05f0 5f697364 7374005f 6c6f6361 6c74696d  _isdst._localtim
 0600 655f6275 66005f63 6c6f7365 005f7234  e_buf._close._r4
 0610 38006f70 746f7074 005f6d62 746f7763  8.optopt._mbtowc
 0620 5f737461 74650063 6f6c6c69 73696f6e  _state.collision
 0630 5f703100 5f703573 00647261 77310064  _p1._p5s.draw1.d
 0640 72617732 00535345 475f4144 44523100  raw2.SSEG_ADDR1.
 0650 53534547 5f414444 52320057 48495445  SSEG_ADDR2.WHITE
 0660 5f434f4c 4f52005f 5f746d5f 6d646179  _COLOR.__tm_mday
 0670 00                                   .               
Contents of section .debug_loc:
 0000 50060000 74060000 0200309f 80060000  P...t.....0.....
 0010 18140000 0200309f 00000000 00000000  ......0.........
 0020 10080000 2c090000 06000358 1400009f  ....,......X....
 0030 a4100000 04110000 06000358 1400009f  ...........X....
 0040 9c120000 b0120000 06000358 1400009f  ...........X....
 0050 f0120000 14130000 06000358 1400009f  ...........X....
 0060 2c130000 04140000 06000358 1400009f  ,..........X....
 0070 0c140000 18140000 06000358 1400009f  ...........X....
 0080 00000000 00000000 d4080000 18090000  ................
 0090 0200319f a4100000 f8100000 0200309f  ..1...........0.
 00a0 0c140000 18140000 0200319f 00000000  ..........1.....
 00b0 00000000 e4100000 f8100000 0200319f  ..............1.
 00c0 00000000 00000000 40130000 44130000  ........@...D...
 00d0 0200309f 44130000 58130000 01005f00  ..0.D...X....._.
 00e0 00000000 00000044 13000050 13000002  .......D...P....
 00f0 00309f00 00000000 00000044 13000050  .0.........D...P
 0100 13000001 005f0000 00000000 00001808  ....._..........
 0110 00002808 00000200 309f0000 00000000  ..(.....0.......
 0120 00001808 00001c08 00000100 5f000000  ............_...
 0130 00000000 00180800 00280800 0001005c  .........(.....\
 0140 00000000 00000000 84080000 94080000  ................
 0150 030008ff 9f000000 00000000 00840800  ................
 0160 00880800 0001005f 00000000 00000000  ......._........
 0170 84080000 94080000 01005c00 00000000  ..........\.....
 0180 00000094 080000d4 08000006 00035814  ..............X.
 0190 00009f00 00000000 00000094 080000d4  ................
 01a0 08000006 00031814 00009f00 00000000  ................
 01b0 000000c4 08000018 09000006 00035814  ..............X.
 01c0 00009f0c 14000018 14000006 00035814  ..............X.
 01d0 00009f00 00000000 000000c4 08000018  ................
 01e0 09000006 00031814 00009f0c 14000018  ................
 01f0 14000006 00031814 00009f00 00000000  ................
 0200 000000d4 08000018 09000006 00035814  ..............X.
 0210 00009fa4 100000e4 10000006 00035814  ..............X.
 0220 00009f0c 14000018 14000006 00035814  ..............X.
 0230 00009f00 00000000 000000d4 08000018  ................
 0240 09000006 00033814 00009fa4 100000e4  ......8.........
 0250 10000006 00033814 00009f0c 14000018  ......8.........
 0260 14000006 00033814 00009f00 00000000  ......8.........
 0270 000000d4 100000f8 10000006 00035814  ..............X.
 0280 00009f0c 14000018 14000006 00035814  ..............X.
 0290 00009f00 00000000 000000d4 100000f8  ................
 02a0 10000006 00033814 00009f0c 14000018  ......8.........
 02b0 14000006 00033814 00009f00 00000000  ......8.........
 02c0 00000014 09000018 09000001 005f0000  ............._..
 02d0 00000000 0000f410 0000f810 00000100  ................
 02e0 5f000000 00000000 00e01300 00e41300  _...............
 02f0 00020030 9fe41300 00f81300 0001005f  ...0..........._
 0300 00000000 00000000 e4130000 f0130000  ................
 0310 0200309f 00000000 00000000 e4130000  ..0.............
 0320 f0130000 01005f00 00000000 00000080  ......_.........
 0330 060000e0 06000006 00031814 00009f60  ...............`
 0340 110000bc 11000006 00031814 00009fcc  ................
 0350 110000ec 11000006 00031814 00009ffc  ................
 0360 1100004c 12000006 00031814 00009f14  ...L............
 0370 13000024 13000006 00031814 00009f00  ...$............
 0380 00000000 00000084 060000ac 06000001  ................
 0390 005b6011 00007011 00000100 5bcc1100  .[`...p.....[...
 03a0 00ec1100 0001005b fc110000 0c120000  .......[........
 03b0 01005b00 00000000 00000088 0600009c  ..[.............
 03c0 06000001 005fcc11 0000d011 00000100  ....._..........
 03d0 5fdc1100 00ec1100 0001005f 00000000  _.........._....
 03e0 00000000 88060000 9c060000 0200319f  ..............1.
 03f0 9c060000 ac060000 01006060 110000b4  ..........``....
 0400 11000001 0060cc11 0000ec11 00000200  .....`..........
 0410 319ffc11 00004412 00000100 60141300  1.....D.....`...
 0420 00241300 00010060 00000000 00000000  .$.....`........
 0430 10120000 30120000 0200309f 00000000  ....0.....0.....
 0440 00000000 10120000 14120000 03007f01  ................
 0450 9f141200 00301200 0001005f 00000000  .....0....._....
 0460 00000000 10120000 30120000 01005c00  ........0.....\.
 0470 00000000 00000010 12000030 12000001  ...........0....
 0480 00660000 00000000 00001812 00002812  .f............(.
 0490 00000200 309f0000 00000000 00001812  ....0...........
 04a0 00002812 00000100 5c000000 00000000  ..(.....\.......
 04b0 00181200 00281200 00010066 00000000  .....(.....f....
 04c0 00000000 c0060000 e0060000 030008ff  ................
 04d0 9f000000 00000000 00c00600 00c40600  ................
 04e0 0003007b 019fc406 0000e006 00000100  ...{............
 04f0 5b000000 00000000 00c00600 00e00600  [...............
 0500 0001005f 00000000 00000000 c0060000  ..._............
 0510 e0060000 01006000 00000000 000000c8  ......`.........
 0520 060000d8 06000003 0008ff9f 00000000  ................
 0530 00000000 c8060000 d8060000 01005f00  .............._.
 0540 00000000 000000c8 060000d8 06000001  ................
 0550 00600000 00000000 00007411 00009411  .`........t.....
 0560 00000200 309f0000 00000000 00007411  ....0.........t.
 0570 00007811 00000300 7c019f78 11000094  ..x.....|..x....
 0580 11000001 005c0000 00000000 00007411  .....\........t.
 0590 00009411 00000100 5f000000 00000000  ........_.......
 05a0 00741100 00941100 00010066 00000000  .t.........f....
 05b0 00000000 7c110000 8c110000 0200309f  ....|.........0.
 05c0 00000000 00000000 7c110000 8c110000  ........|.......
 05d0 01005f00 00000000 0000007c 1100008c  .._........|....
 05e0 11000001 00660000 00000000 0000e006  .....f..........
 05f0 00006011 00000600 03381400 009fbc11  ..`......8......
 0600 0000cc11 00000600 03381400 009fec11  .........8......
 0610 0000fc11 00000600 03381400 009f4c12  .........8....L.
 0620 00001413 00000600 03381400 009f2413  .........8....$.
 0630 00001814 00000600 03381400 009f0000  .........8......
 0640 00000000 0000e406 00000c07 00000100  ................
 0650 5b041100 00141100 0001005b bc110000  [..........[....
 0660 cc110000 01005bec 110000fc 11000001  ......[.........
 0670 005b4c12 00005c12 00000100 5b000000  .[L...\.....[...
 0680 00000000 00e80600 00fc0600 0001005f  ..............._
 0690 bc110000 c0110000 01005fec 110000fc  .........._.....
 06a0 11000001 005f0000 00000000 0000e806  ....._..........
 06b0 0000fc06 00000200 319ffc06 00000c07  ........1.......
 06c0 00000100 60041100 00581100 00010060  ....`....X.....`
 06d0 bc110000 cc110000 0200319f ec110000  ..........1.....
 06e0 fc110000 0200319f 4c120000 94120000  ......1.L.......
 06f0 01006024 1300002c 13000001 00600414  ..`$...,.....`..
 0700 00000c14 00000100 60000000 00000000  ........`.......
 0710 00200700 00041100 00030008 ff9f9c12  . ..............
 0720 00001413 00000300 08ff9f2c 13000004  ...........,....
 0730 14000003 0008ff9f 0c140000 18140000  ................
 0740 030008ff 9f000000 00000000 00200700  ............. ..
 0750 00240700 0003007b 019f2407 00004407  .$.....{..$...D.
 0760 00000100 5b000000 00000000 00200700  ....[........ ..
 0770 00480700 0001005f 00000000 00000000  .H....._........
 0780 20070000 48070000 01006000 00000000   ...H.....`.....
 0790 00000028 07000038 07000003 0008ff9f  ...(...8........
 07a0 00000000 00000000 28070000 38070000  ........(...8...
 07b0 01005f00 00000000 00000028 07000038  .._........(...8
 07c0 07000001 00600000 00000000 00001811  .....`..........
 07d0 00003811 00000200 309f0000 00000000  ..8.....0.......
 07e0 00001811 00001c11 00000300 7c019f1c  ............|...
 07f0 11000038 11000001 005c0000 00000000  ...8.....\......
 0800 00001811 00003811 00000100 5f000000  ......8....._...
 0810 00000000 00181100 00381100 00010066  .........8.....f
 0820 00000000 00000000 20110000 30110000  ........ ...0...
 0830 0200309f 00000000 00000000 20110000  ..0......... ...
 0840 30110000 01005f00 00000000 00000020  0....._........ 
 0850 11000030 11000001 00660000 00000000  ...0.....f......
 0860 00006012 00008012 00000200 309f0000  ..`.........0...
 0870 00000000 00006012 00006412 00000300  ......`...d.....
 0880 7f019f64 12000080 12000001 005f0000  ...d........._..
 0890 00000000 00006012 00008012 00000100  ......`.........
 08a0 5c000000 00000000 00601200 00801200  \........`......
 08b0 00010066 00000000 00000000 68120000  ...f........h...
 08c0 78120000 0200309f 00000000 00000000  x.....0.........
 08d0 68120000 78120000 01005c00 00000000  h...x.....\.....
 08e0 00000068 12000078 12000001 00660000  ...h...x.....f..
 08f0 00000000 00004807 0000a807 00000600  ......H.........
 0900 03181400 009f380f 0000940f 00000600  ......8.........
 0910 03181400 009fbc0f 00003410 00000600  ..........4.....
 0920 03181400 009f8c10 00009410 00000600  ................
 0930 03181400 009f9c10 0000a410 00000600  ................
 0940 03181400 009f0000 00000000 00004c07  ..............L.
 0950 00007407 00000100 5f380f00 00400f00  ..t....._8...@..
 0960 0001005f bc0f0000 ec0f0000 01005f00  ..._.........._.
 0970 00000000 00000050 07000064 07000001  .......P...d....
 0980 005cbc0f 0000d80f 00000100 5c000000  .\..........\...
 0990 00000000 00500700 00640700 00020031  .....P...d.....1
 09a0 9f640700 00740700 00010066 380f0000  .d...t.....f8...
 09b0 8c0f0000 010066bc 0f0000e4 0f000002  ......f.........
 09c0 00319fe4 0f00002c 10000001 00668c10  .1.....,.....f..
 09d0 00009410 00000100 669c1000 00a41000  ........f.......
 09e0 00010066 00000000 00000000 88070000  ...f............
 09f0 a8070000 030008ff 9f000000 00000000  ................
 0a00 00880700 008c0700 00030080 019f8c07  ................
 0a10 0000a807 00000100 60000000 00000000  ........`.......
 0a20 00880700 00a80700 0001005f 00000000  ..........._....
 0a30 00000000 88070000 a8070000 01006600  ..............f.
 0a40 00000000 00000090 070000a0 07000003  ................
 0a50 0008ff9f 00000000 00000000 90070000  ................
 0a60 a0070000 01005f00 00000000 00000090  ......_.........
 0a70 070000a0 07000001 00660000 00000000  .........f......
 0a80 00004c0f 00006c0f 00000200 309f0000  ..L...l.....0...
 0a90 00000000 00004c0f 0000500f 00000300  ......L...P.....
 0aa0 80019f50 0f00006c 0f000001 00600000  ...P...l.....`..
 0ab0 00000000 00004c0f 00006c0f 00000100  ......L...l.....
 0ac0 5f000000 00000000 004c0f00 006c0f00  _........L...l..
 0ad0 00010067 00000000 00000000 540f0000  ...g........T...
 0ae0 640f0000 0200309f 00000000 00000000  d.....0.........
 0af0 540f0000 640f0000 01005f00 00000000  T...d....._.....
 0b00 00000054 0f000064 0f000001 00670000  ...T...d.....g..
 0b10 00000000 0000f80f 00001810 00000200  ................
 0b20 309f0000 00000000 0000f80f 0000fc0f  0...............
 0b30 00000300 80019ffc 0f000018 10000001  ................
 0b40 00600000 00000000 0000f80f 00001810  .`..............
 0b50 00000100 5f000000 00000000 00f80f00  ...._...........
 0b60 00181000 00010067 00000000 00000000  .......g........
 0b70 00100000 10100000 0200309f 00000000  ..........0.....
 0b80 00000000 00100000 10100000 01005f00  .............._.
 0b90 00000000 00000000 10000010 10000001  ................
 0ba0 00670000 00000000 0000a807 00000808  .g..............
 0bb0 00000600 03381400 009fdc0e 0000380f  .....8........8.
 0bc0 00000600 03381400 009f940f 0000bc0f  .....8..........
 0bd0 00000600 03381400 009f3410 00008c10  .....8....4.....
 0be0 00000600 03381400 009f9410 00009c10  .....8..........
 0bf0 00000600 03381400 009f0000 00000000  .....8..........
 0c00 0000ac07 0000d407 00000100 5fdc0e00  ............_...
 0c10 00e40e00 0001005f 940f0000 bc0f0000  ......._........
 0c20 01005f34 1000003c 10000001 005f0000  .._4...<....._..
 0c30 00000000 0000b007 0000c407 00000100  ................
 0c40 5c940f00 00b00f00 0001005c 00000000  \..........\....
 0c50 00000000 b0070000 c4070000 0200319f  ..............1.
 0c60 c4070000 d4070000 010066dc 0e000030  ..........f....0
 0c70 0f000001 0066940f 0000bc0f 00000200  .....f..........
 0c80 319f3410 00007c10 00000100 66841000  1.4...|.....f...
 0c90 008c1000 00010066 94100000 9c100000  .......f........
 0ca0 01006600 00000000 000000e8 07000008  ..f.............
 0cb0 08000003 0008ff9f 00000000 00000000  ................
 0cc0 e8070000 ec070000 03008001 9fec0700  ................
 0cd0 00080800 00010060 00000000 00000000  .......`........
 0ce0 e8070000 08080000 01005f00 00000000  .........._.....
 0cf0 000000e8 07000008 08000001 00660000  .............f..
 0d00 00000000 0000f007 00000008 00000300  ................
 0d10 08ff9f00 00000000 000000f0 07000000  ................
 0d20 08000001 005f0000 00000000 0000f007  ....._..........
 0d30 00000008 00000100 66000000 00000000  ........f.......
 0d40 00f00e00 00100f00 00020030 9f000000  ...........0....
 0d50 00000000 00f00e00 00f40e00 00030080  ................
 0d60 019ff40e 0000100f 00000100 60000000  ............`...
 0d70 00000000 00f00e00 00100f00 0001005f  ..............._
 0d80 00000000 00000000 f00e0000 100f0000  ................
 0d90 01006700 00000000 000000f8 0e000008  ..g.............
 0da0 0f000002 00309f00 00000000 000000f8  .....0..........
 0db0 0e000008 0f000001 005f0000 00000000  ........._......
 0dc0 0000f80e 0000080f 00000100 67000000  ............g...
 0dd0 00000000 00481000 00681000 00020030  .....H...h.....0
 0de0 9f000000 00000000 00481000 004c1000  .........H...L..
 0df0 00030080 019f4c10 00006810 00000100  ......L...h.....
 0e00 60000000 00000000 00481000 00681000  `........H...h..
 0e10 0001005f 00000000 00000000 48100000  ..._........H...
 0e20 68100000 01006700 00000000 00000050  h.....g........P
 0e30 10000060 10000002 00309f00 00000000  ...`.....0......
 0e40 00000050 10000060 10000001 005f0000  ...P...`....._..
 0e50 00000000 00005010 00006010 00000100  ......P...`.....
 0e60 67000000 00000000 00580500 00a00500  g........X......
 0e70 00020030 9f000000 00000000 00a00500  ...0............
 0e80 00a40500 00020030 9fa40500 00b80500  .......0........
 0e90 0001005e 00000000 00000000 a4050000  ...^............
 0ea0 b0050000 0200309f 00000000 00000000  ......0.........
 0eb0 a4050000 b0050000 01005e00 00000000  ..........^.....
 0ec0 00000048 0900004c 09000002 00309f4c  ...H...L.....0.L
 0ed0 09000060 09000001 005f0000 00000000  ...`....._......
 0ee0 00004c09 00005809 00000200 309f0000  ..L...X.....0...
 0ef0 00000000 00004c09 00005809 00000100  ......L...X.....
 0f00 5f000000 00000000 00d40900 00dc0900  _...............
 0f10 00020047 9fdc0900 00e40900 00020048  ...G...........H
 0f20 9fe40900 00ec0900 00020049 9fec0900  ...........I....
 0f30 00f40900 0002004a 9ff40900 00fc0900  .......J........
 0f40 0002004b 9ffc0900 00240a00 0002004c  ...K.....$.....L
 0f50 9f000000 00000000 00d40900 00fc0900  ................
 0f60 00030008 ff9f0000 00000000 0000d409  ................
 0f70 0000dc09 00000200 479fdc09 0000e409  ........G.......
 0f80 00000200 489fe409 0000ec09 00000200  ....H...........
 0f90 499fec09 0000f409 00000200 4a9ff409  I...........J...
 0fa0 0000fc09 00000200 4b9f0000 00000000  ........K.......
 0fb0 0000d409 0000fc09 00000200 4b9f0000  ............K...
 0fc0 00000000 0000fc09 0000040a 00000200  ................
 0fd0 479f040a 00000c0a 00000200 489f0c0a  G...........H...
 0fe0 0000140a 00000200 499f0000 00000000  ........I.......
 0ff0 0000fc09 0000140a 00000300 08ff9f00  ................
 1000 00000000 000000fc 09000014 0a000002  ................
 1010 004d9f00 00000000 00000014 0a00001c  .M..............
 1020 0a000003 0008ff9f 00000000 00000000  ................
 1030 140a0000 1c0a0000 0200479f 00000000  ..........G.....
 1040 00000000 140a0000 1c0a0000 02004c9f  ..............L.
 1050 00000000 00000000 1c0a0000 240a0000  ............$...
 1060 030008ff 9f000000 00000000 001c0a00  ................
 1070 00240a00 00020049 9f000000 00000000  .$.....I........
 1080 001c0a00 00240a00 0002004c 9f000000  .....$.....L....
 1090 00000000 00240a00 00dc0e00 00030008  .....$..........
 10a0 ff9fb012 0000f012 00000300 08ff9f00  ................
 10b0 00000000 00000024 0a0000dc 0e000002  .......$........
 10c0 00479fb0 120000f0 12000002 00479f00  .G...........G..
 10d0 00000000 00000024 0a0000dc 0e000002  .......$........
 10e0 004f9fb0 120000f0 12000002 004f9f00  .O...........O..
 10f0 00000000 00000024 0a0000dc 0e000002  .......$........
 1100 004c9fb0 120000f0 12000002 004c9f00  .L...........L..
 1110 00000000 00000024 0a00002c 0a000002  .......$...,....
 1120 00479f2c 0a000034 0a000002 00489f34  .G.,...4.....H.4
 1130 0a00003c 0a000002 00499f3c 0a000044  ...<.....I.<...D
 1140 0a000002 004a9f44 0a00004c 0a000002  .....J.D...L....
 1150 004b9f4c 0a0000dc 0e000002 004c9fb0  .K.L.........L..
 1160 120000f0 12000002 004c9f00 00000000  .........L......
 1170 00000024 0a00004c 0a000003 0008ff9f  ...$...L........
 1180 00000000 00000000 240a0000 2c0a0000  ........$...,...
 1190 0200479f 2c0a0000 340a0000 0200489f  ..G.,...4.....H.
 11a0 340a0000 3c0a0000 0200499f 3c0a0000  4...<.....I.<...
 11b0 440a0000 02004a9f 440a0000 4c0a0000  D.....J.D...L...
 11c0 02004b9f 00000000 00000000 240a0000  ..K.........$...
 11d0 4c0a0000 02004f9f 00000000 00000000  L.....O.........
 11e0 4c0a0000 540a0000 03000820 9f540a00  L...T...... .T..
 11f0 005c0a00 00030008 219f5c0a 0000dc0e  .\......!.\.....
 1200 00000300 08229fb0 120000f0 12000003  ....."..........
 1210 0008229f 00000000 00000000 4c0a0000  ..".........L...
 1220 5c0a0000 030008ff 9f000000 00000000  \...............
 1230 004c0a00 005c0a00 0002004b 9f000000  .L...\.....K....
 1240 00000000 004c0a00 00540a00 00030008  .....L...T......
 1250 209f540a 00005c0a 00000300 08219f00   .T...\......!..
 1260 00000000 0000005c 0a000064 0a000002  .......\...d....
 1270 00479f64 0a000070 0a000002 00489f70  .G.d...p.....H.p
 1280 0a00007c 0a000002 00499f7c 0a000088  ...|.....I.|....
 1290 0a000002 004a9f88 0a000094 0a000002  .....J..........
 12a0 004b9f94 0a0000e8 0a000002 004c9f00  .K...........L..
 12b0 00000000 0000005c 0a000094 0a000003  .......\........
 12c0 0008ff9f 00000000 00000000 5c0a0000  ............\...
 12d0 640a0000 0200479f 640a0000 700a0000  d.....G.d...p...
 12e0 0200489f 700a0000 7c0a0000 0200499f  ..H.p...|.....I.
 12f0 7c0a0000 880a0000 02004a9f 880a0000  |.........J.....
 1300 940a0000 02004b9f 00000000 00000000  ......K.........
 1310 5c0a0000 940a0000 03000823 9f000000  \..........#....
 1320 00000000 00940a00 00a00a00 00020047  ...............G
 1330 9fa00a00 00ac0a00 00020048 9fac0a00  ...........H....
 1340 00b80a00 00020049 9fb80a00 00c40a00  .......I........
 1350 0002004a 9fc40a00 00d00a00 0002004b  ...J...........K
 1360 9f000000 00000000 00940a00 00d00a00  ................
 1370 00030008 ff9f0000 00000000 0000940a  ................
 1380 0000d00a 00000300 08259f00 00000000  .........%......
 1390 000000d0 0a0000dc 0a000003 0008ff9f  ................
 13a0 00000000 00000000 d00a0000 dc0a0000  ................
 13b0 0200479f 00000000 00000000 d00a0000  ..G.............
 13c0 dc0a0000 03000824 9f000000 00000000  .......$........
 13d0 00dc0a00 00e80a00 00030008 ff9f0000  ................
 13e0 00000000 0000dc0a 0000e80a 00000200  ................
 13f0 499f0000 00000000 0000dc0a 0000e80a  I...............
 1400 00000300 08249f00 00000000 000000e8  .....$..........
 1410 0a0000dc 0e000003 0008279f b0120000  ..........'.....
 1420 f0120000 03000827 9f000000 00000000  .......'........
 1430 00e80a00 00dc0e00 00020047 9fb01200  ...........G....
 1440 00f01200 00020047 9f000000 00000000  .......G........
 1450 00e80a00 00dc0e00 00030008 ff9fb012  ................
 1460 0000f012 00000300 08ff9f00 00000000  ................
 1470 000000e8 0a0000dc 0e000002 00499fb0  .............I..
 1480 120000f0 12000002 00499f00 00000000  .........I......
 1490 000000e8 0a0000f4 0a000002 00479ff4  .............G..
 14a0 0a000000 0b000002 00489f00 0b0000dc  .........H......
 14b0 0e000002 00499fb0 120000f0 12000002  .....I..........
 14c0 00499f00 00000000 000000e8 0a000000  .I..............
 14d0 0b000003 0008ff9f 00000000 00000000  ................
 14e0 e80a0000 f40a0000 0200479f f40a0000  ..........G.....
 14f0 000b0000 0200489f 00000000 00000000  ......H.........
 1500 e80a0000 000b0000 03000827 9f000000  ...........'....
 1510 00000000 00000b00 000c0b00 00020047  ...............G
 1520 9f0c0b00 001c0b00 00020048 9f1c0b00  ...........H....
 1530 00dc0e00 00020049 9fb01200 00f01200  .......I........
 1540 00020049 9f000000 00000000 00000b00  ...I............
 1550 001c0b00 00030008 ff9f0000 00000000  ................
 1560 0000000b 00000c0b 00000200 479f0c0b  ............G...
 1570 00001c0b 00000200 489f0000 00000000  ........H.......
 1580 0000000b 00001c0b 00000300 08299f00  .............)..
 1590 00000000 0000001c 0b000024 0b000002  ...........$....
 15a0 00499f24 0b000030 0b000002 004a9f30  .I.$...0.....J.0
 15b0 0b00003c 0b000002 004b9f3c 0b0000dc  ...<.....K.<....
 15c0 0e000002 004c9fb0 120000f0 12000002  .....L..........
 15d0 004c9f00 00000000 0000001c 0b00003c  .L.............<
 15e0 0b000003 0008ff9f 00000000 00000000  ................
 15f0 1c0b0000 240b0000 0200499f 240b0000  ....$.....I.$...
 1600 300b0000 02004a9f 300b0000 3c0b0000  0.....J.0...<...
 1610 02004b9f 00000000 00000000 1c0b0000  ..K.............
 1620 3c0b0000 03000828 9f000000 00000000  <......(........
 1630 003c0b00 00480b00 00020047 9f480b00  .<...H.....G.H..
 1640 00540b00 00020048 9f540b00 00600b00  .T.....H.T...`..
 1650 00020049 9f600b00 006c0b00 0002004a  ...I.`...l.....J
 1660 9f6c0b00 00780b00 0002004b 9f780b00  .l...x.....K.x..
 1670 00b40b00 0002004c 9f000000 00000000  .......L........
 1680 003c0b00 00780b00 00030008 ff9f0000  .<...x..........
 1690 00000000 00003c0b 0000480b 00000200  ......<...H.....
 16a0 479f480b 0000540b 00000200 489f540b  G.H...T.....H.T.
 16b0 0000600b 00000200 499f600b 00006c0b  ..`.....I.`...l.
 16c0 00000200 4a9f6c0b 0000780b 00000200  ....J.l...x.....
 16d0 4b9f0000 00000000 00003c0b 0000780b  K.........<...x.
 16e0 00000300 082b9f00 00000000 00000078  .....+.........x
 16f0 0b000084 0b000003 00082c9f 840b0000  ..........,.....
 1700 900b0000 0300082d 9f900b00 00b40b00  .......-........
 1710 00030008 2e9f0000 00000000 0000780b  ..............x.
 1720 0000900b 00000300 08ff9f00 00000000  ................
 1730 00000078 0b000090 0b000002 00479f00  ...x.........G..
 1740 00000000 00000078 0b000084 0b000003  .......x........
 1750 00082c9f 840b0000 900b0000 0300082d  ..,............-
 1760 9f000000 00000000 00900b00 009c0b00  ................
 1770 00030008 2c9f9c0b 0000a80b 00000300  ....,...........
 1780 082d9f00 00000000 00000090 0b0000a8  .-..............
 1790 0b000003 0008ff9f 00000000 00000000  ................
 17a0 900b0000 a80b0000 02004b9f 00000000  ..........K.....
 17b0 00000000 a80b0000 b40b0000 030008ff  ................
 17c0 9f000000 00000000 00a80b00 00b40b00  ................
 17d0 00020049 9f000000 00000000 00a80b00  ...I............
 17e0 00b40b00 00030008 2c9f0000 00000000  ........,.......
 17f0 0000b40b 0000380c 00000300 082f9f00  ......8....../..
 1800 00000000 000000b4 0b000038 0c000002  ...........8....
 1810 00479f00 00000000 000000b4 0b000038  .G.............8
 1820 0c000003 0008ff9f 00000000 00000000  ................
 1830 b40b0000 dc0e0000 030008ff 9fb01200  ................
 1840 00f01200 00030008 ff9f0000 00000000  ................
 1850 0000b40b 0000380c 00000200 4c9f0000  ......8.....L...
 1860 00000000 0000b40b 0000c00b 00000200  ................
 1870 479fc00b 0000cc0b 00000200 489fcc0b  G...........H...
 1880 0000d80b 00000200 499fd80b 0000e40b  ........I.......
 1890 00000200 4a9fe40b 0000f00b 00000200  ....J...........
 18a0 4b9ff00b 0000380c 00000200 4c9f0000  K.....8.....L...
 18b0 00000000 0000b40b 0000dc0e 00000300  ................
 18c0 082f9fb0 120000f0 12000003 00082f9f  ./............/.
 18d0 00000000 00000000 b40b0000 f00b0000  ................
 18e0 030008ff 9f000000 00000000 00b40b00  ................
 18f0 00c00b00 00020047 9fc00b00 00cc0b00  .......G........
 1900 00020048 9fcc0b00 00d80b00 00020049  ...H...........I
 1910 9fd80b00 00e40b00 0002004a 9fe40b00  ...........J....
 1920 00f00b00 0002004b 9f000000 00000000  .......K........
 1930 00b40b00 00f00b00 00030008 2f9f0000  ............/...
 1940 00000000 0000f00b 0000fc0b 00000200  ................
 1950 479ffc0b 0000080c 00000200 489f080c  G...........H...
 1960 0000380c 00000200 499f0000 00000000  ..8.....I.......
 1970 0000f00b 0000080c 00000300 08ff9f00  ................
 1980 00000000 000000f0 0b0000fc 0b000002  ................
 1990 00479ffc 0b000008 0c000002 00489f00  .G...........H..
 19a0 00000000 000000f0 0b000008 0c000003  ................
 19b0 0008319f 00000000 00000000 080c0000  ..1.............
 19c0 140c0000 02004a9f 140c0000 200c0000  ......J..... ...
 19d0 02004b9f 00000000 00000000 080c0000  ..K.............
 19e0 200c0000 030008ff 9f000000 00000000   ...............
 19f0 00080c00 00200c00 00030008 319f0000  ..... ......1...
 1a00 00000000 0000200c 00002c0c 00000300  ...... ...,.....
 1a10 08ff9f00 00000000 00000020 0c00002c  ........... ...,
 1a20 0c000002 00479f00 00000000 00000020  .....G......... 
 1a30 0c00002c 0c000003 0008309f 00000000  ...,......0.....
 1a40 00000000 2c0c0000 380c0000 030008ff  ....,...8.......
 1a50 9f000000 00000000 002c0c00 00380c00  .........,...8..
 1a60 00020049 9f000000 00000000 002c0c00  ...I.........,..
 1a70 00380c00 00030008 309f0000 00000000  .8......0.......
 1a80 0000380c 0000c80c 00000200 4e9f0000  ..8.........N...
 1a90 00000000 0000380c 0000c80c 00000200  ......8.........
 1aa0 4f9f0000 00000000 0000380c 0000c80c  O.........8.....
 1ab0 00000300 08ff9f00 00000000 00000038  ...............8
 1ac0 0c0000dc 0e000003 0008ff9f b0120000  ................
 1ad0 f0120000 030008ff 9f000000 00000000  ................
 1ae0 00380c00 00c80c00 00030008 239f0000  .8..........#...
 1af0 00000000 0000380c 0000440c 00000200  ......8...D.....
 1b00 4f9f440c 0000500c 00000300 08209f50  O.D...P...... .P
 1b10 0c00005c 0c000003 0008219f 5c0c0000  ...\......!.\...
 1b20 680c0000 03000822 9f680c00 00c80c00  h......".h......
 1b30 00030008 239f0000 00000000 0000380c  ....#.........8.
 1b40 0000dc0e 00000200 4e9fb012 0000f012  ........N.......
 1b50 00000200 4e9f0000 00000000 0000380c  ....N.........8.
 1b60 0000680c 00000300 08ff9f00 00000000  ..h.............
 1b70 00000038 0c000044 0c000002 004f9f44  ...8...D.....O.D
 1b80 0c000050 0c000003 0008209f 500c0000  ...P...... .P...
 1b90 5c0c0000 03000821 9f5c0c00 00680c00  \......!.\...h..
 1ba0 00030008 229f0000 00000000 0000380c  ....".........8.
 1bb0 0000680c 00000200 4e9f0000 00000000  ..h.....N.......
 1bc0 0000680c 0000740c 00000200 4f9f740c  ..h...t.....O.t.
 1bd0 0000800c 00000300 08209f80 0c00008c  ......... ......
 1be0 0c000003 0008219f 8c0c0000 980c0000  ......!.........
 1bf0 03000822 9f980c00 00c80c00 00030008  ..."............
 1c00 239f0000 00000000 0000680c 0000980c  #.........h.....
 1c10 00000300 08ff9f00 00000000 00000068  ...............h
 1c20 0c000074 0c000002 004f9f74 0c000080  ...t.....O.t....
 1c30 0c000003 0008209f 800c0000 8c0c0000  ...... .........
 1c40 03000821 9f8c0c00 00980c00 00030008  ...!............
 1c50 229f0000 00000000 0000680c 0000980c  ".........h.....
 1c60 00000300 08229f00 00000000 00000098  ....."..........
 1c70 0c0000a8 0c000003 0008219f a80c0000  ..........!.....
 1c80 b00c0000 03000822 9f000000 00000000  ......."........
 1c90 00980c00 00b00c00 00030008 ff9f0000  ................
 1ca0 00000000 0000980c 0000b00c 00000300  ................
 1cb0 08209f00 00000000 000000b0 0c0000bc  . ..............
 1cc0 0c000003 0008ff9f 00000000 00000000  ................
 1cd0 b00c0000 bc0c0000 03000823 9f000000  ...........#....
 1ce0 00000000 00b00c00 00bc0c00 0002004f  ...............O
 1cf0 9f000000 00000000 00bc0c00 00c80c00  ................
 1d00 00030008 ff9f0000 00000000 0000bc0c  ................
 1d10 0000c80c 00000300 08239f00 00000000  .........#......
 1d20 000000bc 0c0000c8 0c000003 0008219f  ..............!.
 1d30 00000000 00000000 c80c0000 dc0e0000  ................
 1d40 03000824 9fb01200 00f01200 00030008  ...$............
 1d50 249f0000 00000000 0000c80c 0000dc0e  $...............
 1d60 00000200 4f9fb012 0000f012 00000200  ....O...........
 1d70 4f9f0000 00000000 0000c80c 0000dc0e  O...............
 1d80 00000300 08ff9fb0 120000f0 12000003  ................
 1d90 0008ff9f 00000000 00000000 c80c0000  ................
 1da0 dc0e0000 03000827 9fb01200 00f01200  .......'........
 1db0 00030008 279f0000 00000000 0000c80c  ....'...........
 1dc0 0000d40c 00000300 08249fd4 0c0000e0  .........$......
 1dd0 0c000003 0008259f e00c0000 ec0c0000  ......%.........
 1de0 03000826 9fec0c00 00dc0e00 00030008  ...&............
 1df0 279fb012 0000f012 00000300 08279f00  '............'..
 1e00 00000000 000000c8 0c0000ec 0c000003  ................
 1e10 0008ff9f 00000000 00000000 c80c0000  ................
 1e20 ec0c0000 02004f9f 00000000 00000000  ......O.........
 1e30 c80c0000 d40c0000 03000824 9fd40c00  ...........$....
 1e40 00e00c00 00030008 259fe00c 0000ec0c  ........%.......
 1e50 00000300 08269f00 00000000 000000ec  .....&..........
 1e60 0c0000f8 0c000003 0008249f f80c0000  ..........$.....
 1e70 040d0000 03000825 9f040d00 00100d00  .......%........
 1e80 00030008 269f100d 0000dc0e 00000300  ....&...........
 1e90 08279fb0 120000f0 12000003 0008279f  .'............'.
 1ea0 00000000 00000000 ec0c0000 100d0000  ................
 1eb0 030008ff 9f000000 00000000 00ec0c00  ................
 1ec0 00100d00 00030008 239f0000 00000000  ........#.......
 1ed0 0000ec0c 0000f80c 00000300 08249ff8  .............$..
 1ee0 0c000004 0d000003 0008259f 040d0000  ..........%.....
 1ef0 100d0000 03000826 9f000000 00000000  .......&........
 1f00 00100d00 001c0d00 00030008 209f1c0d  ............ ...
 1f10 0000280d 00000300 08219f28 0d000034  ..(......!.(...4
 1f20 0d000003 0008229f 340d0000 dc0e0000  ......".4.......
 1f30 03000823 9fb01200 00f01200 00030008  ...#............
 1f40 239f0000 00000000 0000100d 0000340d  #.............4.
 1f50 00000300 08ff9f00 00000000 00000010  ................
 1f60 0d00001c 0d000003 0008209f 1c0d0000  .......... .....
 1f70 280d0000 03000821 9f280d00 00340d00  (......!.(...4..
 1f80 00030008 229f0000 00000000 0000100d  ...."...........
 1f90 0000340d 00000300 08259f00 00000000  ..4......%......
 1fa0 00000034 0d000040 0d000002 004f9f40  ...4...@.....O.@
 1fb0 0d00004c 0d000003 0008209f 4c0d0000  ...L...... .L...
 1fc0 580d0000 03000821 9f580d00 00640d00  X......!.X...d..
 1fd0 00030008 229f640d 0000700d 00000300  ....".d...p.....
 1fe0 08239f70 0d0000c4 0d000003 0008249f  .#.p..........$.
 1ff0 00000000 00000000 340d0000 700d0000  ........4...p...
 2000 030008ff 9f000000 00000000 00340d00  .............4..
 2010 00400d00 0002004f 9f400d00 004c0d00  .@.....O.@...L..
 2020 00030008 209f4c0d 0000580d 00000300  .... .L...X.....
 2030 08219f58 0d000064 0d000003 0008229f  .!.X...d......".
 2040 640d0000 700d0000 03000823 9f000000  d...p......#....
 2050 00000000 00340d00 00700d00 00030008  .....4...p......
 2060 289f0000 00000000 0000700d 00007c0d  (.........p...|.
 2070 00000200 4f9f7c0d 0000880d 00000300  ....O.|.........
 2080 08209f88 0d000094 0d000003 0008219f  . ............!.
 2090 940d0000 a00d0000 03000822 9fa00d00  ..........."....
 20a0 00ac0d00 00030008 239f0000 00000000  ........#.......
 20b0 0000700d 0000ac0d 00000300 08ff9f00  ..p.............
 20c0 00000000 00000070 0d0000ac 0d000003  .......p........
 20d0 00082b9f 00000000 00000000 ac0d0000  ..+.............
 20e0 b80d0000 030008ff 9f000000 00000000  ................
 20f0 00ac0d00 00b80d00 00030008 219f0000  ............!...
 2100 00000000 0000ac0d 0000b80d 00000300  ................
 2110 08299f00 00000000 000000b8 0d0000c4  .)..............
 2120 0d000003 0008ff9f 00000000 00000000  ................
 2130 b80d0000 c40d0000 03000822 9f000000  ..........."....
 2140 00000000 00b80d00 00c40d00 00030008  ................
 2150 2a9f0000 00000000 0000c40d 0000480e  *.............H.
 2160 00000300 082d9f00 00000000 000000c4  .....-..........
 2170 0d000048 0e000002 004f9f00 00000000  ...H.....O......
 2180 000000c4 0d000048 0e000003 0008ff9f  .......H........
 2190 00000000 00000000 c40d0000 dc0e0000  ................
 21a0 030008ff 9fb01200 00f01200 00030008  ................
 21b0 ff9f0000 00000000 0000c40d 0000480e  ..............H.
 21c0 00000300 08309f00 00000000 000000c4  .....0..........
 21d0 0d0000dc 0e000002 004f9fb0 120000f0  .........O......
 21e0 12000002 004f9f00 00000000 000000c4  .....O..........
 21f0 0d0000d0 0d000003 00082d9f d00d0000  ..........-.....
 2200 dc0d0000 0300082e 9fdc0d00 00e80d00  ................
 2210 00030008 2f9fe80d 0000480e 00000300  ..../.....H.....
 2220 08309f00 00000000 000000c4 0d0000e8  .0..............
 2230 0d000003 0008ff9f 00000000 00000000  ................
 2240 c40d0000 e80d0000 02004f9f 00000000  ..........O.....
 2250 00000000 c40d0000 d00d0000 0300082d  ...............-
 2260 9fd00d00 00dc0d00 00030008 2e9fdc0d  ................
 2270 0000e80d 00000300 082f9f00 00000000  ........./......
 2280 000000e8 0d0000f4 0d000003 00082d9f  ..............-.
 2290 f40d0000 000e0000 0300082e 9f000e00  ................
 22a0 000c0e00 00030008 2f9f0c0e 0000480e  ......../.....H.
 22b0 00000300 08309f00 00000000 000000e8  .....0..........
 22c0 0d00000c 0e000003 0008ff9f 00000000  ................
 22d0 00000000 e80d0000 0c0e0000 03000821  ...............!
 22e0 9f000000 00000000 00e80d00 00f40d00  ................
 22f0 00030008 2d9ff40d 0000000e 00000300  ....-...........
 2300 082e9f00 0e00000c 0e000003 00082f9f  ............../.
 2310 00000000 00000000 0c0e0000 180e0000  ................
 2320 0300082d 9f180e00 00240e00 00030008  ...-.....$......
 2330 2e9f240e 0000340e 00000300 082f9f00  ..$...4....../..
 2340 00000000 0000000c 0e000034 0e000003  ...........4....
 2350 0008ff9f 00000000 00000000 0c0e0000  ................
 2360 340e0000 03000823 9f000000 00000000  4......#........
 2370 00340e00 003c0e00 00030008 ff9f0000  .4...<..........
 2380 00000000 0000340e 00003c0e 00000300  ......4...<.....
 2390 08209f00 00000000 00000034 0e00003c  . .........4...<
 23a0 0e000003 00082d9f 00000000 00000000  ......-.........
 23b0 3c0e0000 480e0000 030008ff 9f000000  <...H...........
 23c0 00000000 003c0e00 00480e00 00030008  .....<...H......
 23d0 229f0000 00000000 00003c0e 0000480e  ".........<...H.
 23e0 00000300 082f9f00 00000000 00000054  ...../.........T
 23f0 0e000060 0e000003 0008349f 600e0000  ...`......4.`...
 2400 6c0e0000 03000835 9f6c0e00 00780e00  l......5.l...x..
 2410 00030008 369f780e 0000dc0e 00000300  ....6.x.........
 2420 08379f00 00000000 00000054 0e000078  .7.........T...x
 2430 0e000003 0008ff9f 00000000 00000000  ................
 2440 540e0000 780e0000 0200479f 00000000  T...x.....G.....
 2450 00000000 540e0000 600e0000 03000834  ....T...`......4
 2460 9f600e00 006c0e00 00030008 359f6c0e  .`...l......5.l.
 2470 0000780e 00000300 08369f00 00000000  ..x......6......
 2480 00000078 0e000084 0e000003 0008349f  ...x..........4.
 2490 840e0000 900e0000 03000835 9f900e00  ...........5....
 24a0 009c0e00 00030008 369f9c0e 0000dc0e  ........6.......
 24b0 00000300 08379f00 00000000 00000078  .....7.........x
 24c0 0e00009c 0e000003 0008ff9f 00000000  ................
 24d0 00000000 780e0000 9c0e0000 0200499f  ....x.........I.
 24e0 00000000 00000000 780e0000 840e0000  ........x.......
 24f0 03000834 9f840e00 00900e00 00030008  ...4............
 2500 359f900e 00009c0e 00000300 08369f00  5............6..
 2510 00000000 0000009c 0e0000a8 0e000003  ................
 2520 0008349f a80e0000 b40e0000 03000835  ..4............5
 2530 9fb40e00 00c00e00 00030008 369f0000  ............6...
 2540 00000000 00009c0e 0000c00e 00000300  ................
 2550 08ff9f00 00000000 0000009c 0e0000c0  ................
 2560 0e000002 004b9f00 00000000 000000c0  .....K..........
 2570 0e0000cc 0e000003 0008ff9f 00000000  ................
 2580 00000000 c00e0000 cc0e0000 0200489f  ..............H.
 2590 00000000 00000000 c00e0000 cc0e0000  ................
 25a0 03000836 9f000000 00000000 00cc0e00  ...6............
 25b0 00d80e00 00030008 ff9f0000 00000000  ................
 25c0 0000cc0e 0000d80e 00000200 4a9f0000  ............J...
 25d0 00000000 0000cc0e 0000d80e 00000300  ................
 25e0 08349f00 00000000 000000b0 120000bc  .4..............
 25f0 12000002 00479fbc 120000c8 12000002  .....G..........
 2600 00489fc8 120000d4 12000002 00499fd4  .H...........I..
 2610 120000e0 12000002 004a9fe0 120000ec  .........J......
 2620 12000002 004b9fec 120000f0 12000002  .....K..........
 2630 004c9f00 00000000 000000b0 120000ec  .L..............
 2640 12000003 0008ff9f 00000000 00000000  ................
 2650 b0120000 bc120000 0200479f bc120000  ..........G.....
 2660 c8120000 0200489f c8120000 d4120000  ......H.........
 2670 0200499f d4120000 e0120000 02004a9f  ..I...........J.
 2680 e0120000 ec120000 02004b9f 00000000  ..........K.....
 2690 00000000 b0120000 ec120000 03000834  ...............4
 26a0 9f000000 00000000 00                 .........       
Contents of section .debug_ranges:
 0000 58050000 58050000 58050000 58050000  X...X...X...X...
 0010 5c050000 60050000 8c050000 40060000  \...`.......@...
 0020 00000000 00000000 58050000 58050000  ........X...X...
 0030 5c050000 60050000 8c050000 c0050000  \...`...........
 0040 00000000 00000000 8c050000 9c050000  ................
 0050 a0050000 bc050000 00000000 00000000  ................
 0060 8c050000 98050000 a0050000 a4050000  ................
 0070 a4050000 b0050000 00000000 00000000  ................
 0080 48060000 4c060000 58060000 74060000  H...L...X...t...
 0090 74060000 44090000 dc0e0000 b0120000  t...D...........
 00a0 f0120000 40130000 40130000 e0130000  ....@...@.......
 00b0 e0130000 18140000 00000000 00000000  ................
 00c0 48060000 4c060000 70060000 74060000  H...L...p...t...
 00d0 10080000 2c090000 a4100000 04110000  ....,...........
 00e0 9c120000 b0120000 f0120000 14130000  ................
 00f0 2c130000 40130000 40130000 e0130000  ,...@...@.......
 0100 e0130000 04140000 0c140000 18140000  ................
 0110 00000000 00000000 48060000 4c060000  ........H...L...
 0120 70060000 74060000 34130000 38130000  p...t...4...8...
 0130 40130000 40130000 40130000 cc130000  @...@...@.......
 0140 00000000 00000000 48060000 4c060000  ........H...L...
 0150 70060000 74060000 34130000 38130000  p...t...4...8...
 0160 40130000 60130000 00000000 00000000  @...`...........
 0170 34130000 38130000 40130000 5c130000  4...8...@...\...
 0180 00000000 00000000 40130000 44130000  ........@...D...
 0190 44130000 50130000 00000000 00000000  D...P...........
 01a0 d4080000 04090000 a4100000 e4100000  ................
 01b0 0c140000 18140000 00000000 00000000  ................
 01c0 d4100000 e4100000 0c140000 18140000  ................
 01d0 00000000 00000000 18090000 2c090000  ............,...
 01e0 e4100000 04110000 9c120000 b0120000  ................
 01f0 f0120000 14130000 00000000 00000000  ................
 0200 d4130000 d8130000 e0130000 e0130000  ................
 0210 e0130000 04140000 00000000 00000000  ................
 0220 d4130000 d8130000 e0130000 04140000  ................
 0230 00000000 00000000 d4130000 d8130000  ................
 0240 e0130000 fc130000 00000000 00000000  ................
 0250 e0130000 e4130000 e4130000 f0130000  ................
 0260 00000000 00000000 58060000 70060000  ........X...p...
 0270 74060000 80060000 80060000 e0060000  t...............
 0280 60110000 bc110000 cc110000 ec110000  `...............
 0290 fc110000 4c120000 14130000 24130000  ....L.......$...
 02a0 00000000 00000000 60060000 68060000  ........`...h...
 02b0 10120000 30120000 00000000 00000000  ....0...........
 02c0 60060000 68060000 18120000 28120000  `...h.......(...
 02d0 00000000 00000000 68060000 70060000  ........h...p...
 02e0 c0060000 e0060000 00000000 00000000  ................
 02f0 68060000 70060000 c8060000 d8060000  h...p...........
 0300 00000000 00000000 e0060000 48070000  ............H...
 0310 04110000 60110000 bc110000 cc110000  ....`...........
 0320 ec110000 fc110000 4c120000 9c120000  ........L.......
 0330 24130000 2c130000 04140000 0c140000  $...,...........
 0340 00000000 00000000 48070000 a8070000  ........H.......
 0350 380f0000 940f0000 bc0f0000 34100000  8...........4...
 0360 8c100000 94100000 9c100000 a4100000  ................
 0370 00000000 00000000 a8070000 08080000  ................
 0380 dc0e0000 380f0000 940f0000 bc0f0000  ....8...........
 0390 34100000 8c100000 94100000 9c100000  4...............
 03a0 00000000 00000000 48090000 4c090000  ........H...L...
 03b0 4c090000 58090000 00000000 00000000  L...X...........
 03c0 78090000 b4090000 d4090000 dc090000  x...............
 03d0 dc090000 e4090000 e4090000 ec090000  ................
 03e0 ec090000 f4090000 f4090000 fc090000  ................
 03f0 fc090000 040a0000 040a0000 0c0a0000  ................
 0400 0c0a0000 140a0000 140a0000 1c0a0000  ................
 0410 1c0a0000 240a0000 00000000 00000000  ....$...........
 0420 78090000 a0090000 d4090000 dc090000  x...............
 0430 dc090000 e4090000 e4090000 ec090000  ................
 0440 ec090000 f4090000 f4090000 fc090000  ................
 0450 00000000 00000000 a0090000 ac090000  ................
 0460 fc090000 040a0000 040a0000 0c0a0000  ................
 0470 0c0a0000 140a0000 00000000 00000000  ................
 0480 ac090000 b0090000 140a0000 1c0a0000  ................
 0490 00000000 00000000 b0090000 b4090000  ................
 04a0 1c0a0000 240a0000 00000000 00000000  ....$...........
 04b0 b4090000 d0090000 240a0000 2c0a0000  ........$...,...
 04c0 2c0a0000 340a0000 340a0000 3c0a0000  ,...4...4...<...
 04d0 3c0a0000 440a0000 440a0000 4c0a0000  <...D...D...L...
 04e0 4c0a0000 540a0000 540a0000 5c0a0000  L...T...T...\...
 04f0 00000000 00000000 b4090000 c8090000  ................
 0500 240a0000 2c0a0000 2c0a0000 340a0000  $...,...,...4...
 0510 340a0000 3c0a0000 3c0a0000 440a0000  4...<...<...D...
 0520 440a0000 4c0a0000 00000000 00000000  D...L...........
 0530 c8090000 d0090000 4c0a0000 540a0000  ........L...T...
 0540 540a0000 5c0a0000 00000000 00000000  T...\...........
 0550 d0090000 d4090000 5c0a0000 640a0000  ........\...d...
 0560 640a0000 700a0000 700a0000 7c0a0000  d...p...p...|...
 0570 7c0a0000 880a0000 880a0000 940a0000  |...............
 0580 940a0000 a00a0000 a00a0000 ac0a0000  ................
 0590 ac0a0000 b80a0000 b80a0000 c40a0000  ................
 05a0 c40a0000 d00a0000 d00a0000 dc0a0000  ................
 05b0 dc0a0000 e80a0000 00000000 00000000  ................
 05c0 d0090000 d4090000 5c0a0000 640a0000  ........\...d...
 05d0 640a0000 700a0000 700a0000 7c0a0000  d...p...p...|...
 05e0 7c0a0000 880a0000 880a0000 940a0000  |...............
 05f0 00000000 00000000 940a0000 a00a0000  ................
 0600 a00a0000 ac0a0000 ac0a0000 b80a0000  ................
 0610 b80a0000 c40a0000 c40a0000 d00a0000  ................
 0620 00000000 00000000 e80a0000 f40a0000  ................
 0630 f40a0000 000b0000 000b0000 0c0b0000  ................
 0640 0c0b0000 1c0b0000 1c0b0000 240b0000  ............$...
 0650 240b0000 300b0000 300b0000 3c0b0000  $...0...0...<...
 0660 00000000 00000000 e80a0000 f40a0000  ................
 0670 f40a0000 000b0000 00000000 00000000  ................
 0680 000b0000 0c0b0000 0c0b0000 140b0000  ................
 0690 180b0000 1c0b0000 00000000 00000000  ................
 06a0 140b0000 180b0000 1c0b0000 240b0000  ............$...
 06b0 240b0000 300b0000 300b0000 3c0b0000  $...0...0...<...
 06c0 00000000 00000000 3c0b0000 480b0000  ........<...H...
 06d0 480b0000 540b0000 540b0000 600b0000  H...T...T...`...
 06e0 600b0000 6c0b0000 6c0b0000 780b0000  `...l...l...x...
 06f0 780b0000 840b0000 840b0000 900b0000  x...............
 0700 900b0000 9c0b0000 9c0b0000 a80b0000  ................
 0710 a80b0000 b40b0000 00000000 00000000  ................
 0720 3c0b0000 480b0000 480b0000 540b0000  <...H...H...T...
 0730 540b0000 600b0000 600b0000 6c0b0000  T...`...`...l...
 0740 6c0b0000 780b0000 00000000 00000000  l...x...........
 0750 780b0000 840b0000 840b0000 900b0000  x...............
 0760 00000000 00000000 900b0000 9c0b0000  ................
 0770 9c0b0000 a80b0000 00000000 00000000  ................
 0780 b40b0000 c00b0000 c00b0000 cc0b0000  ................
 0790 cc0b0000 d80b0000 d80b0000 e40b0000  ................
 07a0 e40b0000 f00b0000 f00b0000 fc0b0000  ................
 07b0 fc0b0000 080c0000 080c0000 140c0000  ................
 07c0 140c0000 200c0000 200c0000 2c0c0000  .... ... ...,...
 07d0 2c0c0000 380c0000 00000000 00000000  ,...8...........
 07e0 b40b0000 c00b0000 c00b0000 cc0b0000  ................
 07f0 cc0b0000 d80b0000 d80b0000 e40b0000  ................
 0800 e40b0000 f00b0000 00000000 00000000  ................
 0810 f00b0000 fc0b0000 fc0b0000 080c0000  ................
 0820 00000000 00000000 080c0000 140c0000  ................
 0830 140c0000 200c0000 00000000 00000000  .... ...........
 0840 380c0000 440c0000 440c0000 500c0000  8...D...D...P...
 0850 500c0000 5c0c0000 5c0c0000 680c0000  P...\...\...h...
 0860 680c0000 740c0000 740c0000 800c0000  h...t...t.......
 0870 800c0000 8c0c0000 8c0c0000 980c0000  ................
 0880 980c0000 a80c0000 a80c0000 b00c0000  ................
 0890 b00c0000 bc0c0000 bc0c0000 c80c0000  ................
 08a0 00000000 00000000 380c0000 440c0000  ........8...D...
 08b0 440c0000 500c0000 500c0000 5c0c0000  D...P...P...\...
 08c0 5c0c0000 680c0000 00000000 00000000  \...h...........
 08d0 680c0000 740c0000 740c0000 800c0000  h...t...t.......
 08e0 800c0000 8c0c0000 8c0c0000 980c0000  ................
 08f0 00000000 00000000 980c0000 a80c0000  ................
 0900 a80c0000 b00c0000 00000000 00000000  ................
 0910 c80c0000 d40c0000 d40c0000 e00c0000  ................
 0920 e00c0000 ec0c0000 ec0c0000 f80c0000  ................
 0930 f80c0000 040d0000 040d0000 100d0000  ................
 0940 100d0000 1c0d0000 1c0d0000 280d0000  ............(...
 0950 280d0000 340d0000 00000000 00000000  (...4...........
 0960 c80c0000 d40c0000 d40c0000 e00c0000  ................
 0970 e00c0000 ec0c0000 00000000 00000000  ................
 0980 ec0c0000 f80c0000 f80c0000 040d0000  ................
 0990 040d0000 100d0000 00000000 00000000  ................
 09a0 340d0000 400d0000 400d0000 4c0d0000  4...@...@...L...
 09b0 4c0d0000 580d0000 580d0000 640d0000  L...X...X...d...
 09c0 640d0000 700d0000 700d0000 7c0d0000  d...p...p...|...
 09d0 7c0d0000 880d0000 880d0000 940d0000  |...............
 09e0 940d0000 a00d0000 a00d0000 ac0d0000  ................
 09f0 ac0d0000 b80d0000 b80d0000 c40d0000  ................
 0a00 00000000 00000000 340d0000 400d0000  ........4...@...
 0a10 400d0000 4c0d0000 4c0d0000 580d0000  @...L...L...X...
 0a20 580d0000 640d0000 640d0000 700d0000  X...d...d...p...
 0a30 00000000 00000000 700d0000 7c0d0000  ........p...|...
 0a40 7c0d0000 880d0000 880d0000 940d0000  |...............
 0a50 940d0000 a00d0000 a00d0000 ac0d0000  ................
 0a60 00000000 00000000 c40d0000 d00d0000  ................
 0a70 d00d0000 dc0d0000 dc0d0000 e80d0000  ................
 0a80 e80d0000 f40d0000 f40d0000 000e0000  ................
 0a90 000e0000 0c0e0000 0c0e0000 180e0000  ................
 0aa0 180e0000 240e0000 240e0000 340e0000  ....$...$...4...
 0ab0 340e0000 3c0e0000 3c0e0000 480e0000  4...<...<...H...
 0ac0 00000000 00000000 c40d0000 d00d0000  ................
 0ad0 d00d0000 dc0d0000 dc0d0000 e80d0000  ................
 0ae0 00000000 00000000 e80d0000 f40d0000  ................
 0af0 f40d0000 000e0000 000e0000 0c0e0000  ................
 0b00 00000000 00000000 0c0e0000 180e0000  ................
 0b10 180e0000 240e0000 240e0000 2c0e0000  ....$...$...,...
 0b20 300e0000 340e0000 00000000 00000000  0...4...........
 0b30 2c0e0000 300e0000 340e0000 3c0e0000  ,...0...4...<...
 0b40 00000000 00000000 540e0000 600e0000  ........T...`...
 0b50 600e0000 6c0e0000 6c0e0000 780e0000  `...l...l...x...
 0b60 780e0000 840e0000 840e0000 900e0000  x...............
 0b70 900e0000 9c0e0000 9c0e0000 a80e0000  ................
 0b80 a80e0000 b40e0000 b40e0000 c00e0000  ................
 0b90 c00e0000 cc0e0000 cc0e0000 dc0e0000  ................
 0ba0 00000000 00000000 540e0000 600e0000  ........T...`...
 0bb0 600e0000 6c0e0000 6c0e0000 780e0000  `...l...l...x...
 0bc0 00000000 00000000 780e0000 840e0000  ........x.......
 0bd0 840e0000 900e0000 900e0000 9c0e0000  ................
 0be0 00000000 00000000 9c0e0000 a80e0000  ................
 0bf0 a80e0000 b40e0000 b40e0000 c00e0000  ................
 0c00 00000000 00000000 b0120000 bc120000  ................
 0c10 bc120000 c8120000 c8120000 d4120000  ................
 0c20 d4120000 e0120000 e0120000 f0120000  ................
 0c30 00000000 00000000 58050000 18140000  ........X.......
 0c40 00000000 00000000                    ........        
Contents of section .debug_frame:
 0000 0c000000 ffffffff 0100017c 010d0200  ...........|....
 0010 28000000 00000000 58050000 c00e0000  (.......X.......
 0020 440e3070 81018802 89039204 93059406  D.0p............
 0030 95079608 9709980a 990b0000           ............    

Disassembly of section .text.init:

00000000 <entry>:
# This code is executed first.

.section .text.init
entry:

    la    sp, __sp   # set up the stack pointer, using a constant defined in the linker script.
   0:	auipc	sp,0x10
   4:	mv	sp,sp
  
    call _start		# use this if using C runtime, std c library
   8:	jal	ra,10 <_start>

0000000c <end>:
  
 #   call  main          # call the main function if barebones assembly/C

end:
    j end               # loop when finished if there is no environment to return to.
   c:	j	c <end>

Disassembly of section .text:

00000010 <_start>:
  10:	auipc	gp,0x1
  14:	addi	gp,gp,-696 # d58 <__global_pointer$>
  18:	auipc	a0,0x2
  1c:	addi	a0,a0,-1840 # 18e8 <_edata>
  20:	auipc	a2,0x2
  24:	addi	a2,a2,-1848 # 18e8 <_edata>
  28:	sub	a2,a2,a0
  2c:	li	a1,0
  30:	jal	ra,29c <memset>
  34:	auipc	a0,0x0
  38:	addi	a0,a0,356 # 198 <__libc_fini_array>
  3c:	jal	ra,150 <atexit>
  40:	jal	ra,1f4 <__libc_init_array>
  44:	lw	a0,0(sp) # 10000 <__sp>
  48:	addi	a1,sp,4
  4c:	li	a2,0
  50:	jal	ra,558 <main>
  54:	j	164 <exit>

00000058 <_fini>:
  58:	ret

0000005c <deregister_tm_clones>:
  5c:	lui	a0,0x2
  60:	lui	a5,0x2
  64:	addi	a4,a0,-1812 # 18ec <__TMC_END__>
  68:	addi	a5,a5,-1812 # 18ec <__TMC_END__>
  6c:	beq	a5,a4,84 <deregister_tm_clones+0x28>
  70:	lui	t1,0x0
  74:	mv	t1,t1
  78:	beqz	t1,84 <deregister_tm_clones+0x28>
  7c:	addi	a0,a0,-1812
  80:	jr	t1 # 0 <entry>
  84:	ret

00000088 <register_tm_clones>:
  88:	lui	a5,0x2
  8c:	lui	a0,0x2
  90:	addi	a1,a5,-1812 # 18ec <__TMC_END__>
  94:	addi	a5,a0,-1812 # 18ec <__TMC_END__>
  98:	sub	a1,a1,a5
  9c:	srai	a1,a1,0x2
  a0:	srli	a5,a1,0x1f
  a4:	add	a1,a5,a1
  a8:	srai	a1,a1,0x1
  ac:	beqz	a1,c4 <register_tm_clones+0x3c>
  b0:	lui	t1,0x0
  b4:	mv	t1,t1
  b8:	beqz	t1,c4 <register_tm_clones+0x3c>
  bc:	addi	a0,a0,-1812
  c0:	jr	t1 # 0 <entry>
  c4:	ret

000000c8 <__do_global_dtors_aux>:
  c8:	lbu	a4,1808(gp) # 1468 <completed.5430>
  cc:	bnez	a4,118 <__do_global_dtors_aux+0x50>
  d0:	addi	sp,sp,-16
  d4:	sw	s0,8(sp)
  d8:	sw	ra,12(sp)
  dc:	mv	s0,a5
  e0:	jal	ra,5c <deregister_tm_clones>
  e4:	lui	a5,0x0
  e8:	mv	a5,a5
  ec:	beqz	a5,100 <__do_global_dtors_aux+0x38>
  f0:	lui	a0,0x2
  f4:	addi	a0,a0,-1816 # 18e8 <_edata>
  f8:	auipc	ra,0x0
  fc:	jalr	zero # 0 <entry>
 100:	li	a5,1
 104:	sb	a5,1808(gp) # 1468 <completed.5430>
 108:	lw	ra,12(sp)
 10c:	lw	s0,8(sp)
 110:	addi	sp,sp,16
 114:	ret
 118:	ret

0000011c <frame_dummy>:
 11c:	lui	a5,0x0
 120:	mv	a5,a5
 124:	beqz	a5,14c <frame_dummy+0x30>
 128:	lui	a0,0x2
 12c:	addi	sp,sp,-16
 130:	addi	a1,gp,1812 # 146c <object.5435>
 134:	addi	a0,a0,-1816 # 18e8 <_edata>
 138:	sw	ra,12(sp)
 13c:	auipc	ra,0x0
 140:	jalr	zero # 0 <entry>
 144:	lw	ra,12(sp)
 148:	addi	sp,sp,16
 14c:	j	88 <register_tm_clones>

00000150 <atexit>:
 150:	mv	a1,a0
 154:	li	a3,0
 158:	li	a2,0
 15c:	li	a0,0
 160:	j	378 <__register_exitproc>

00000164 <exit>:
 164:	addi	sp,sp,-16
 168:	li	a1,0
 16c:	sw	s0,8(sp)
 170:	sw	ra,12(sp)
 174:	mv	s0,a0
 178:	jal	ra,3f8 <__call_exitprocs>
 17c:	lui	a5,0x2
 180:	lw	a0,-1820(a5) # 18e4 <_global_impure_ptr>
 184:	lw	a5,60(a0)
 188:	beqz	a5,190 <exit+0x2c>
 18c:	jalr	a5
 190:	mv	a0,s0
 194:	jal	ra,508 <_exit>

00000198 <__libc_fini_array>:
 198:	addi	sp,sp,-16
 19c:	lui	a5,0x0
 1a0:	sw	s0,8(sp)
 1a4:	lui	s0,0x0
 1a8:	mv	a4,a5
 1ac:	mv	s0,s0
 1b0:	sub	s0,s0,a4
 1b4:	sw	s1,4(sp)
 1b8:	sw	ra,12(sp)
 1bc:	srai	s0,s0,0x2
 1c0:	mv	s1,a5
 1c4:	bnez	s0,1dc <__libc_fini_array+0x44>
 1c8:	lw	s0,8(sp)
 1cc:	lw	ra,12(sp)
 1d0:	lw	s1,4(sp)
 1d4:	addi	sp,sp,16
 1d8:	j	58 <_fini>
 1dc:	addi	s0,s0,-1
 1e0:	slli	a5,s0,0x2
 1e4:	add	a5,s1,a5
 1e8:	lw	a5,0(a5) # 0 <entry>
 1ec:	jalr	a5
 1f0:	j	1c4 <__libc_fini_array+0x2c>

000001f4 <__libc_init_array>:
 1f4:	addi	sp,sp,-16
 1f8:	lui	a5,0x0
 1fc:	sw	s0,8(sp)
 200:	lui	s0,0x0
 204:	mv	a4,a5
 208:	mv	s0,s0
 20c:	sub	s0,s0,a4
 210:	sw	s1,4(sp)
 214:	sw	s2,0(sp)
 218:	sw	ra,12(sp)
 21c:	srai	s0,s0,0x2
 220:	li	s1,0
 224:	mv	s2,a5
 228:	bne	s1,s0,26c <__libc_init_array+0x78>
 22c:	jal	ra,58 <_fini>
 230:	lui	a5,0x0
 234:	lui	s0,0x0
 238:	mv	a4,a5
 23c:	mv	s0,s0
 240:	sub	s0,s0,a4
 244:	srai	s0,s0,0x2
 248:	li	s1,0
 24c:	mv	s2,a5
 250:	bne	s1,s0,284 <__libc_init_array+0x90>
 254:	lw	ra,12(sp)
 258:	lw	s0,8(sp)
 25c:	lw	s1,4(sp)
 260:	lw	s2,0(sp)
 264:	addi	sp,sp,16
 268:	ret
 26c:	slli	a5,s1,0x2
 270:	add	a5,s2,a5
 274:	lw	a5,0(a5) # 0 <entry>
 278:	addi	s1,s1,1
 27c:	jalr	a5
 280:	j	228 <__libc_init_array+0x34>
 284:	slli	a5,s1,0x2
 288:	add	a5,s2,a5
 28c:	lw	a5,0(a5)
 290:	addi	s1,s1,1
 294:	jalr	a5
 298:	j	250 <__libc_init_array+0x5c>

0000029c <memset>:
 29c:	li	t1,15
 2a0:	mv	a4,a0
 2a4:	bgeu	t1,a2,2e0 <memset+0x44>
 2a8:	andi	a5,a4,15
 2ac:	bnez	a5,34c <memset+0xb0>
 2b0:	bnez	a1,334 <memset+0x98>
 2b4:	andi	a3,a2,-16
 2b8:	andi	a2,a2,15
 2bc:	add	a3,a3,a4
 2c0:	sw	a1,0(a4)
 2c4:	sw	a1,4(a4)
 2c8:	sw	a1,8(a4)
 2cc:	sw	a1,12(a4)
 2d0:	addi	a4,a4,16
 2d4:	bltu	a4,a3,2c0 <memset+0x24>
 2d8:	bnez	a2,2e0 <memset+0x44>
 2dc:	ret
 2e0:	sub	a3,t1,a2
 2e4:	slli	a3,a3,0x2
 2e8:	auipc	t0,0x0
 2ec:	add	a3,a3,t0
 2f0:	jr	12(a3)
 2f4:	sb	a1,14(a4)
 2f8:	sb	a1,13(a4)
 2fc:	sb	a1,12(a4)
 300:	sb	a1,11(a4)
 304:	sb	a1,10(a4)
 308:	sb	a1,9(a4)
 30c:	sb	a1,8(a4)
 310:	sb	a1,7(a4)
 314:	sb	a1,6(a4)
 318:	sb	a1,5(a4)
 31c:	sb	a1,4(a4)
 320:	sb	a1,3(a4)
 324:	sb	a1,2(a4)
 328:	sb	a1,1(a4)
 32c:	sb	a1,0(a4)
 330:	ret
 334:	andi	a1,a1,255
 338:	slli	a3,a1,0x8
 33c:	or	a1,a1,a3
 340:	slli	a3,a1,0x10
 344:	or	a1,a1,a3
 348:	j	2b4 <memset+0x18>
 34c:	slli	a3,a5,0x2
 350:	auipc	t0,0x0
 354:	add	a3,a3,t0
 358:	mv	t0,ra
 35c:	jalr	-96(a3)
 360:	mv	ra,t0
 364:	addi	a5,a5,-16
 368:	sub	a4,a4,a5
 36c:	add	a2,a2,a5
 370:	bgeu	t1,a2,2e0 <memset+0x44>
 374:	j	2b0 <memset+0x14>

00000378 <__register_exitproc>:
 378:	lui	a5,0x2
 37c:	lw	a4,-1820(a5) # 18e4 <_global_impure_ptr>
 380:	mv	t1,a0
 384:	lw	a5,328(a4)
 388:	bnez	a5,394 <__register_exitproc+0x1c>
 38c:	addi	a5,a4,332
 390:	sw	a5,328(a4)
 394:	lw	a4,4(a5)
 398:	li	a6,31
 39c:	li	a0,-1
 3a0:	blt	a6,a4,3f4 <__register_exitproc+0x7c>
 3a4:	slli	a7,a4,0x2
 3a8:	beqz	t1,3e0 <__register_exitproc+0x68>
 3ac:	add	a0,a5,a7
 3b0:	sw	a2,136(a0)
 3b4:	lw	a6,392(a5)
 3b8:	li	a2,1
 3bc:	sll	a2,a2,a4
 3c0:	or	a6,a6,a2
 3c4:	sw	a6,392(a5)
 3c8:	sw	a3,264(a0)
 3cc:	li	a3,2
 3d0:	bne	t1,a3,3e0 <__register_exitproc+0x68>
 3d4:	lw	a3,396(a5)
 3d8:	or	a2,a3,a2
 3dc:	sw	a2,396(a5)
 3e0:	addi	a4,a4,1
 3e4:	sw	a4,4(a5)
 3e8:	add	a5,a5,a7
 3ec:	sw	a1,8(a5)
 3f0:	li	a0,0
 3f4:	ret

000003f8 <__call_exitprocs>:
 3f8:	addi	sp,sp,-48
 3fc:	lui	a5,0x2
 400:	sw	s3,28(sp)
 404:	lw	s3,-1820(a5) # 18e4 <_global_impure_ptr>
 408:	sw	s4,24(sp)
 40c:	sw	s5,20(sp)
 410:	sw	s6,16(sp)
 414:	sw	ra,44(sp)
 418:	sw	s0,40(sp)
 41c:	sw	s1,36(sp)
 420:	sw	s2,32(sp)
 424:	sw	s7,12(sp)
 428:	mv	s5,a0
 42c:	mv	s4,a1
 430:	li	s6,1
 434:	lw	s1,328(s3)
 438:	beqz	s1,450 <__call_exitprocs+0x58>
 43c:	lw	s0,4(s1)
 440:	addi	s2,s0,-1
 444:	slli	s0,s0,0x2
 448:	add	s0,s1,s0
 44c:	bgez	s2,47c <__call_exitprocs+0x84>
 450:	lw	ra,44(sp)
 454:	lw	s0,40(sp)
 458:	lw	s1,36(sp)
 45c:	lw	s2,32(sp)
 460:	lw	s3,28(sp)
 464:	lw	s4,24(sp)
 468:	lw	s5,20(sp)
 46c:	lw	s6,16(sp)
 470:	lw	s7,12(sp)
 474:	addi	sp,sp,48
 478:	ret
 47c:	beqz	s4,494 <__call_exitprocs+0x9c>
 480:	lw	a5,260(s0)
 484:	beq	a5,s4,494 <__call_exitprocs+0x9c>
 488:	addi	s2,s2,-1
 48c:	addi	s0,s0,-4
 490:	j	44c <__call_exitprocs+0x54>
 494:	lw	a4,4(s1)
 498:	lw	a5,4(s0)
 49c:	addi	a4,a4,-1
 4a0:	bne	a4,s2,4d8 <__call_exitprocs+0xe0>
 4a4:	sw	s2,4(s1)
 4a8:	beqz	a5,488 <__call_exitprocs+0x90>
 4ac:	lw	a3,392(s1)
 4b0:	sll	a4,s6,s2
 4b4:	lw	s7,4(s1)
 4b8:	and	a3,a4,a3
 4bc:	bnez	a3,4e0 <__call_exitprocs+0xe8>
 4c0:	jalr	a5
 4c4:	lw	a5,4(s1)
 4c8:	bne	a5,s7,434 <__call_exitprocs+0x3c>
 4cc:	lw	a5,328(s3)
 4d0:	beq	a5,s1,488 <__call_exitprocs+0x90>
 4d4:	j	434 <__call_exitprocs+0x3c>
 4d8:	sw	zero,4(s0)
 4dc:	j	4a8 <__call_exitprocs+0xb0>
 4e0:	lw	a3,396(s1)
 4e4:	lw	a1,132(s0)
 4e8:	and	a4,a4,a3
 4ec:	bnez	a4,4fc <__call_exitprocs+0x104>
 4f0:	mv	a0,s5
 4f4:	jalr	a5
 4f8:	j	4c4 <__call_exitprocs+0xcc>
 4fc:	mv	a0,a1
 500:	jalr	a5
 504:	j	4c4 <__call_exitprocs+0xcc>

00000508 <_exit>:
 508:	li	a1,0
 50c:	li	a2,0
 510:	li	a3,0
 514:	li	a4,0
 518:	li	a5,0
 51c:	li	a7,93
 520:	ecall
 524:	bgez	a0,548 <_exit+0x40>
 528:	addi	sp,sp,-16
 52c:	sw	s0,8(sp)
 530:	mv	s0,a0
 534:	sw	ra,12(sp)
 538:	neg	s0,s0
 53c:	jal	ra,54c <__errno>
 540:	sw	s0,0(a0)
 544:	j	544 <_exit+0x3c>
 548:	j	548 <_exit+0x40>

0000054c <__errno>:
 54c:	lui	a5,0x2
 550:	lw	a0,-1868(a5) # 18b4 <_impure_ptr>
 554:	ret

Disassembly of section .text.startup:

00000558 <main>:
	ball.y = 29;
	ball.dy = -1;

}

void main() {
     558:	addi	sp,sp,-48
	}
}

// fills the screen with BG_COLOR
static void draw_background() {
	for (int Y = 0; Y != 60; Y++) {
     55c:	lui	a3,0x2
void main() {
     560:	sw	ra,44(sp)
     564:	sw	s0,40(sp)
     568:	sw	s1,36(sp)
     56c:	sw	s2,32(sp)
     570:	sw	s3,28(sp)
     574:	sw	s4,24(sp)
     578:	sw	s5,20(sp)
     57c:	sw	s6,16(sp)
     580:	sw	s7,12(sp)
     584:	sw	s8,8(sp)
     588:	sw	s9,4(sp)
	}
}

// draws a small square (a single memory cell)
static void draw_dot(int X, int Y, int color) {
	*VG_ADDR = (Y << 7) | X;  // store into the address IO register
     58c:	li	a5,0
     590:	lui	a0,0x11100
	*VG_COLOR = color;  // store into the color IO register, which triggers
     594:	lui	a1,0x11140
	for (; X != toX; X++) {
     598:	li	a2,80
	for (int Y = 0; Y != 60; Y++) {
     59c:	addi	a3,a3,-512 # 1e00 <__frame_dummy_init_array_entry+0x510>
	*VG_ADDR = (Y << 7) | X;  // store into the address IO register
     5a0:	li	a4,0
     5a4:	or	a6,a4,a5
     5a8:	sw	a6,0(a0) # 11100000 <__sp+0x110f0000>
	*VG_COLOR = color;  // store into the color IO register, which triggers
     5ac:	sw	zero,0(a1) # 11140000 <__sp+0x11130000>
	for (; X != toX; X++) {
     5b0:	addi	a4,a4,1
     5b4:	bne	a4,a2,5a4 <main+0x4c>
     5b8:	addi	a5,a5,128
	for (int Y = 0; Y != 60; Y++) {
     5bc:	bne	a5,a3,5a0 <main+0x48>
	*SSEG_ADDR1 = paddle1.score;
     5c0:	addi	a7,gp,1728 # 1418 <paddle1>
     5c4:	lw	a4,24(a7)
     5c8:	lui	a5,0x110c0
     5cc:	sw	a4,0(a5) # 110c0000 <__sp+0x110b0000>
	*SSEG_ADDR2 = paddle2.score; //---------------------------------------------------
     5d0:	addi	t1,gp,1760 # 1438 <paddle2>
     5d4:	lw	a3,24(t1)
     5d8:	lui	a5,0x111c0
	paddle1.y = 29;			// Middle of the screen
     5dc:	li	a4,29
	*SSEG_ADDR2 = paddle2.score; //---------------------------------------------------
     5e0:	sw	a3,0(a5) # 111c0000 <__sp+0x111b0000>
	paddle1.x = 0;			// Left of the screen
     5e4:	sw	zero,1728(gp) # 1418 <paddle1>
	paddle1.y = 29;			// Middle of the screen
     5e8:	sw	a4,4(a7)
	paddle1.w = 4;
     5ec:	li	a3,4
     5f0:	sw	a3,8(a7)
	paddle1.up_btn = 0b01000;	// Top Button
     5f4:	li	a5,8
     5f8:	sw	a5,16(a7)
	paddle1.down_btn = 0b00001;	// Bottom Button
     5fc:	li	a5,1
     600:	sw	a5,20(a7)
	paddle1.id = 1;
     604:	sw	a5,28(a7)
	paddle2.x = 79;			// Right of the screen
     608:	li	a2,79
     60c:	sw	a2,1760(gp) # 1438 <paddle2>
	paddle2.y = 29;			// Middle of the screen
     610:	sw	a4,4(t1)
	paddle2.w = 4;
     614:	sw	a3,8(t1)
	paddle2.up_btn = 0b00100; 	// Left Button
     618:	sw	a3,16(t1)
	paddle2.down_btn = 0b00010;	// Right Button
     61c:	li	a3,2
     620:	sw	a3,20(t1)
	paddle2.id = 2;
     624:	sw	a3,28(t1)
	ball.x = 39;
     628:	li	a3,39
     62c:	sw	a3,1792(gp) # 1458 <ball>
	ball.y = 29;
     630:	addi	s1,gp,1792 # 1458 <ball>
     634:	sw	a4,4(s1)
	ball.dy = -1;
     638:	li	a4,-1
     63c:	sw	a4,12(s1)
	paddle1.score = 0;
     640:	sw	zero,24(a7)
	paddle2.score = 0;
     644:	sw	zero,24(t1)
	for (int Y = 0; Y != 60; Y++) {
     648:	lui	ra,0x2
	ball.dx = 1; 		//Start Going to the right
     64c:	sw	a5,8(s1)
		else if(state == 2) {
     650:	li	t6,2
     654:	li	t3,1
	int btn_val = *BUTTONS;
     658:	lui	t5,0x11180
	int swt_val = *SWITCHES; 
     65c:	lui	t4,0x11000
	*VG_ADDR = (Y << 7) | X;  // store into the address IO register
     660:	lui	a4,0x11100
	*VG_COLOR = color;  // store into the color IO register, which triggers
     664:	lui	a3,0x11140
     668:	li	s5,255
     66c:	li	a0,255
	for (int Y = 0; Y != 60; Y++) {
     670:	addi	ra,ra,-512 # 1e00 <__frame_dummy_init_array_entry+0x510>
		p_dy = 4;
     674:	li	s4,4
		if(59 - (paddle->y + paddle->w + p_dy) >= 0) { 
     678:	li	s0,59
			paddle->y = 55;
     67c:	li	s2,55
	int btn_val = *BUTTONS;
     680:	lw	a1,0(t5) # 11180000 <__sp+0x11170000>
	int swt_val = *SWITCHES; 
     684:	lw	a5,0(t4) # 11000000 <__sp+0x10ff0000>
	if((paddle->id == 1) && (swt_val >> 15 == 1)) {
     688:	lw	a2,28(a7)
     68c:	beq	a2,t3,11dc <__global_pointer$+0x484>
	else if((paddle->id == 2) && ((swt_val & 1) == 1)) {
     690:	lw	a2,28(a7)
	int p_dy = 1;
     694:	li	a6,1
	else if((paddle->id == 2) && ((swt_val & 1) == 1)) {
     698:	beq	a2,t6,11cc <__global_pointer$+0x474>
	if(btn_val == paddle->down_btn) {
     69c:	lw	a5,20(a7)
     6a0:	beq	a1,a5,1160 <__global_pointer$+0x408>
	else if(btn_val == paddle->up_btn) { 
     6a4:	lw	a5,16(a7)
     6a8:	beq	a1,a5,11fc <__global_pointer$+0x4a4>
	draw_vertical_line(paddle->x, paddle->y, paddle->y + paddle->w, P_NORM_COLOR); 	// Draw new paddle 
     6ac:	lw	a6,1728(gp) # 1418 <paddle1>
     6b0:	lw	a5,4(a7)
     6b4:	lw	a1,4(a7)
     6b8:	lw	a2,8(a7)
     6bc:	add	a1,a1,a2
	toY++;
     6c0:	addi	a1,a1,1
	for (; Y != toY; Y++) {
     6c4:	beq	a5,a1,6e0 <main+0x188>
	*VG_ADDR = (Y << 7) | X;  // store into the address IO register
     6c8:	slli	a2,a5,0x7
     6cc:	or	a2,a2,a6
     6d0:	sw	a2,0(a4) # 11100000 <__sp+0x110f0000>
	*VG_COLOR = color;  // store into the color IO register, which triggers
     6d4:	sw	a0,0(a3) # 11140000 <__sp+0x11130000>
	for (; Y != toY; Y++) {
     6d8:	addi	a5,a5,1
     6dc:	bne	a5,a1,6c8 <main+0x170>
	int btn_val = *BUTTONS;
     6e0:	lw	a1,0(t5)
	int swt_val = *SWITCHES; 
     6e4:	lw	a5,0(t4)
	if((paddle->id == 1) && (swt_val >> 15 == 1)) {
     6e8:	lw	a2,28(t1)
     6ec:	beq	a2,t3,11ec <__global_pointer$+0x494>
	else if((paddle->id == 2) && ((swt_val & 1) == 1)) {
     6f0:	lw	a2,28(t1)
	int p_dy = 1;
     6f4:	li	a6,1
	else if((paddle->id == 2) && ((swt_val & 1) == 1)) {
     6f8:	beq	a2,t6,11bc <__global_pointer$+0x464>
	if(btn_val == paddle->down_btn) {
     6fc:	lw	a5,20(t1)
     700:	beq	a1,a5,1104 <__global_pointer$+0x3ac>
	else if(btn_val == paddle->up_btn) { 
     704:	lw	a5,16(t1)
     708:	beq	a1,a5,124c <__global_pointer$+0x4f4>
	draw_vertical_line(paddle->x, paddle->y, paddle->y + paddle->w, P_NORM_COLOR); 	// Draw new paddle 
     70c:	lw	a6,1760(gp) # 1438 <paddle2>
     710:	lw	a5,4(t1)
     714:	lw	a1,4(t1)
     718:	lw	a2,8(t1)
     71c:	add	a1,a1,a2
	toY++;
     720:	addi	a1,a1,1
	for (; Y != toY; Y++) {
     724:	beq	a5,a1,740 <main+0x1e8>
	*VG_ADDR = (Y << 7) | X;  // store into the address IO register
     728:	slli	a2,a5,0x7
     72c:	or	a2,a2,a6
     730:	sw	a2,0(a4)
	*VG_COLOR = color;  // store into the color IO register, which triggers
     734:	sw	a0,0(a3)
	for (; Y != toY; Y++) {
     738:	addi	a5,a5,1
     73c:	bne	a5,a1,728 <main+0x1d0>
		p_dy = 4;
     740:	lui	a1,0x18
     744:	addi	a1,a1,1696 # 186a0 <__sp+0x86a0>
	int btn_val = *BUTTONS;
     748:	lw	a5,0(t5)
	int swt_val = *SWITCHES; 
     74c:	lw	a2,0(t4)
	if((paddle->id == 1) && (swt_val >> 15 == 1)) {
     750:	lw	a6,28(a7)
     754:	beq	a6,t3,fbc <__global_pointer$+0x264>
	else if((paddle->id == 2) && ((swt_val & 1) == 1)) {
     758:	lw	a6,28(a7)
	int p_dy = 1;
     75c:	li	s6,1
	else if((paddle->id == 2) && ((swt_val & 1) == 1)) {
     760:	beq	a6,t6,fd4 <__global_pointer$+0x27c>
	if(btn_val == paddle->down_btn) {
     764:	lw	a2,20(a7)
     768:	beq	a5,a2,f38 <__global_pointer$+0x1e0>
	else if(btn_val == paddle->up_btn) { 
     76c:	lw	a2,16(a7)
     770:	beq	a5,a2,fe4 <__global_pointer$+0x28c>
	draw_vertical_line(paddle->x, paddle->y, paddle->y + paddle->w, P_NORM_COLOR); 	// Draw new paddle 
     774:	lw	s6,1728(gp) # 1418 <paddle1>
     778:	lw	a5,4(a7)
     77c:	lw	a6,4(a7)
     780:	lw	a2,8(a7)
     784:	add	a6,a6,a2
	toY++;
     788:	addi	a6,a6,1
	for (; Y != toY; Y++) {
     78c:	beq	a5,a6,7a8 <main+0x250>
	*VG_ADDR = (Y << 7) | X;  // store into the address IO register
     790:	slli	a2,a5,0x7
     794:	or	a2,a2,s6
     798:	sw	a2,0(a4)
	*VG_COLOR = color;  // store into the color IO register, which triggers
     79c:	sw	a0,0(a3)
	for (; Y != toY; Y++) {
     7a0:	addi	a5,a5,1
     7a4:	bne	a5,a6,790 <main+0x238>
	int btn_val = *BUTTONS;
     7a8:	lw	a5,0(t5)
	int swt_val = *SWITCHES; 
     7ac:	lw	a2,0(t4)
	if((paddle->id == 1) && (swt_val >> 15 == 1)) {
     7b0:	lw	a6,28(t1)
     7b4:	beq	a6,t3,f94 <__global_pointer$+0x23c>
	else if((paddle->id == 2) && ((swt_val & 1) == 1)) {
     7b8:	lw	a6,28(t1)
	int p_dy = 1;
     7bc:	li	s6,1
	else if((paddle->id == 2) && ((swt_val & 1) == 1)) {
     7c0:	beq	a6,t6,fac <__global_pointer$+0x254>
	if(btn_val == paddle->down_btn) {
     7c4:	lw	a2,20(t1)
     7c8:	beq	a5,a2,edc <__global_pointer$+0x184>
	else if(btn_val == paddle->up_btn) { 
     7cc:	lw	a2,16(t1)
     7d0:	beq	a5,a2,1034 <__global_pointer$+0x2dc>
	draw_vertical_line(paddle->x, paddle->y, paddle->y + paddle->w, P_NORM_COLOR); 	// Draw new paddle 
     7d4:	lw	s6,1760(gp) # 1438 <paddle2>
     7d8:	lw	a5,4(t1)
     7dc:	lw	a6,4(t1)
     7e0:	lw	a2,8(t1)
     7e4:	add	a6,a6,a2
	toY++;
     7e8:	addi	a6,a6,1
	for (; Y != toY; Y++) {
     7ec:	beq	a5,a6,808 <main+0x2b0>
	*VG_ADDR = (Y << 7) | X;  // store into the address IO register
     7f0:	slli	a2,a5,0x7
     7f4:	or	a2,a2,s6
     7f8:	sw	a2,0(a4)
	*VG_COLOR = color;  // store into the color IO register, which triggers
     7fc:	sw	a0,0(a3)
	for (; Y != toY; Y++) {
     800:	addi	a5,a5,1
     804:	bne	a5,a6,7f0 <main+0x298>
				i++;
     808:	addi	a1,a1,-1
			while (i<BALL_SPEED) {
     80c:	bnez	a1,748 <main+0x1f0>
	draw_dot(b->x, b->y, BG_COLOR);
     810:	lw	a2,1792(gp) # 1458 <ball>
     814:	lw	a5,4(s1)
	*VG_ADDR = (Y << 7) | X;  // store into the address IO register
     818:	slli	a5,a5,0x7
     81c:	or	a5,a5,a2
     820:	sw	a5,0(a4)
	*VG_COLOR = color;  // store into the color IO register, which triggers
     824:	sw	zero,0(a3)
	b->x += b->dx;
     828:	lw	a5,8(s1)
     82c:	lw	a2,1792(gp) # 1458 <ball>
     830:	add	a5,a5,a2
     834:	sw	a5,1792(gp) # 1458 <ball>
	b->y += b->dy;
     838:	lw	a5,12(s1)
     83c:	lw	a2,4(s1)
     840:	add	a5,a5,a2
     844:	sw	a5,4(s1)
	if(b->x < 0) {
     848:	lw	a5,1792(gp) # 1458 <ball>
     84c:	bltz	a5,13cc <__global_pointer$+0x674>
	if((79 -b->x) < 0)  {
     850:	lw	a2,1792(gp) # 1458 <ball>
     854:	li	a5,79
     858:	sub	a5,a5,a2
     85c:	bltz	a5,132c <__global_pointer$+0x5d4>
	if(b->y < 0 || b->y > 59) {
     860:	lw	a5,4(s1)
     864:	bltz	a5,870 <main+0x318>
     868:	lw	a5,4(s1)
     86c:	bge	s0,a5,87c <main+0x324>
		b->dy = -(b->dy);
     870:	lw	a5,12(s1)
     874:	neg	a5,a5
     878:	sw	a5,12(s1)
	draw_dot(b->x, b->y, P_NORM_COLOR);
     87c:	lw	a2,1792(gp) # 1458 <ball>
     880:	lw	a5,4(s1)
	*VG_ADDR = (Y << 7) | X;  // store into the address IO register
     884:	slli	a5,a5,0x7
     888:	or	a5,a5,a2
     88c:	sw	a5,0(a4)
	*VG_COLOR = color;  // store into the color IO register, which triggers
     890:	sw	s5,0(a3)
	if(b->x > p->x+1) return 0;	// returns 0 if ball is to the right of the left paddle
     894:	lw	a2,1792(gp) # 1458 <ball>
     898:	lw	a5,1728(gp) # 1418 <paddle1>
     89c:	addi	a5,a5,1
     8a0:	blt	a5,a2,10a4 <__global_pointer$+0x34c>
	if(b->x < p->x-1) return 0;	// returns 0 if ball is to the left of the right paddle
     8a4:	lw	a2,1792(gp) # 1458 <ball>
     8a8:	lw	a5,1728(gp) # 1418 <paddle1>
     8ac:	addi	a5,a5,-1
     8b0:	blt	a2,a5,10a4 <__global_pointer$+0x34c>
	if(b->y > p->y +4) return 0;	// returns 0 if ball is below the paddle
     8b4:	lw	a2,4(s1)
     8b8:	lw	a5,4(a7)
     8bc:	addi	a5,a5,4
     8c0:	blt	a5,a2,10a4 <__global_pointer$+0x34c>
	if(b->y < p->y-1) return 0;	// returns 0 if ball is above the paddle
     8c4:	lw	a2,4(s1)
     8c8:	lw	a5,4(a7)
     8cc:	addi	a5,a5,-1
     8d0:	blt	a2,a5,10a4 <__global_pointer$+0x34c>
	if(b->x > p->x+1) return 0;	// returns 0 if ball is to the right of the left paddle
     8d4:	lw	a2,1792(gp) # 1458 <ball>
     8d8:	lw	a5,1760(gp) # 1438 <paddle2>
     8dc:	addi	a5,a5,1
     8e0:	blt	a5,a2,904 <main+0x3ac>
	if(b->x < p->x-1) return 0;	// returns 0 if ball is to the left of the right paddle
     8e4:	lw	a2,1792(gp) # 1458 <ball>
     8e8:	lw	a5,1760(gp) # 1438 <paddle2>
     8ec:	addi	a5,a5,-1
     8f0:	blt	a2,a5,904 <main+0x3ac>
	if(b->y > p->y +4) return 0;	// returns 0 if ball is below the paddle
     8f4:	lw	a2,4(s1)
     8f8:	lw	a5,4(t1)
     8fc:	addi	a5,a5,4
     900:	bge	a5,a2,140c <__global_pointer$+0x6b4>
		int hit_location = (paddle1.y+4) - ball.y;
     904:	lw	a5,4(a7)
     908:	lw	a2,4(s1)
     90c:	addi	a5,a5,4
     910:	sub	a5,a5,a2
		if(hit_location == 0) b->dy = 3;	// Hit the Very Top
     914:	bnez	a5,10f8 <__global_pointer$+0x3a0>
		if(hit_location == 0) b->dy = 3;	// Hit the Very Top
     918:	li	a5,3
     91c:	sw	a5,12(s1)
		b->dx = -(b->dx);
     920:	lw	a5,8(s1)
     924:	neg	a5,a5
     928:	sw	a5,8(s1)
			if(paddle1.score == 5 || paddle2.score == 5) state = 1;
     92c:	lw	a2,24(a7)
     930:	li	a5,5
     934:	beq	a2,a5,944 <main+0x3ec>
     938:	lw	a2,24(t1)
     93c:	li	a5,5
     940:	bne	a2,a5,680 <main+0x128>
	for (; X != toX; X++) {
     944:	li	a0,80
	*VG_ADDR = (Y << 7) | X;  // store into the address IO register
     948:	li	a5,0
     94c:	or	a2,a1,a5
     950:	sw	a2,0(a4)
	*VG_COLOR = color;  // store into the color IO register, which triggers
     954:	sw	zero,0(a3)
	for (; X != toX; X++) {
     958:	addi	a5,a5,1
     95c:	bne	a5,a0,94c <main+0x3f4>
     960:	addi	a1,a1,128
	for (int Y = 0; Y != 60; Y++) {
     964:	bne	a1,ra,948 <main+0x3f0>
			state = 2;		
     968:	li	a5,2
		else if(state == 2) {
     96c:	beq	a5,t6,978 <main+0x420>
     970:	li	a5,1
     974:	bne	a5,t6,970 <main+0x418>
	*VG_ADDR = (Y << 7) | X;  // store into the address IO register
     978:	lui	a5,0x1
     97c:	lui	a3,0x11100
     980:	addi	s7,a5,-1125 # b9b <main+0x643>
	*VG_COLOR = color;  // store into the color IO register, which triggers
     984:	lui	a4,0x11140
     988:	li	a1,255
     98c:	li	a2,255
	*VG_ADDR = (Y << 7) | X;  // store into the address IO register
     990:	addi	s6,a5,-997
     994:	addi	s5,a5,-869
     998:	addi	s4,a5,-741
     99c:	addi	s3,a5,-613
     9a0:	addi	s2,a5,-1123
     9a4:	addi	s1,a5,-995
     9a8:	addi	s0,a5,-867
     9ac:	addi	ra,a5,-1124
     9b0:	addi	t2,a5,-868
     9b4:	addi	t0,a5,-1121
     9b8:	addi	t6,a5,-993
     9bc:	addi	t5,a5,-865
     9c0:	addi	t4,a5,-737
     9c4:	addi	t3,a5,-609
     9c8:	addi	t1,a5,-608
     9cc:	addi	a6,a5,-607
     9d0:	addi	a0,a5,-1117
     9d4:	sw	s7,0(a3) # 11100000 <__sp+0x110f0000>
	*VG_COLOR = color;  // store into the color IO register, which triggers
     9d8:	sw	a2,0(a4) # 11140000 <__sp+0x11130000>
	*VG_ADDR = (Y << 7) | X;  // store into the address IO register
     9dc:	sw	s6,0(a3)
	*VG_COLOR = color;  // store into the color IO register, which triggers
     9e0:	sw	a2,0(a4)
	*VG_ADDR = (Y << 7) | X;  // store into the address IO register
     9e4:	sw	s5,0(a3)
	*VG_COLOR = color;  // store into the color IO register, which triggers
     9e8:	sw	a2,0(a4)
	*VG_ADDR = (Y << 7) | X;  // store into the address IO register
     9ec:	sw	s4,0(a3)
	*VG_COLOR = color;  // store into the color IO register, which triggers
     9f0:	sw	a2,0(a4)
	*VG_ADDR = (Y << 7) | X;  // store into the address IO register
     9f4:	sw	s3,0(a3)
	*VG_COLOR = color;  // store into the color IO register, which triggers
     9f8:	sw	a2,0(a4)
	*VG_ADDR = (Y << 7) | X;  // store into the address IO register
     9fc:	sw	s2,0(a3)
	*VG_COLOR = color;  // store into the color IO register, which triggers
     a00:	sw	a2,0(a4)
	*VG_ADDR = (Y << 7) | X;  // store into the address IO register
     a04:	sw	s1,0(a3)
	*VG_COLOR = color;  // store into the color IO register, which triggers
     a08:	sw	a2,0(a4)
	*VG_ADDR = (Y << 7) | X;  // store into the address IO register
     a0c:	sw	s0,0(a3)
	*VG_COLOR = color;  // store into the color IO register, which triggers
     a10:	sw	a2,0(a4)
	*VG_ADDR = (Y << 7) | X;  // store into the address IO register
     a14:	sw	ra,0(a3)
	*VG_COLOR = color;  // store into the color IO register, which triggers
     a18:	sw	a2,0(a4)
	*VG_ADDR = (Y << 7) | X;  // store into the address IO register
     a1c:	sw	t2,0(a3)
	*VG_COLOR = color;  // store into the color IO register, which triggers
     a20:	sw	a2,0(a4)
	*VG_ADDR = (Y << 7) | X;  // store into the address IO register
     a24:	sw	t0,0(a3)
	*VG_COLOR = color;  // store into the color IO register, which triggers
     a28:	sw	a2,0(a4)
	*VG_ADDR = (Y << 7) | X;  // store into the address IO register
     a2c:	sw	t6,0(a3)
	*VG_COLOR = color;  // store into the color IO register, which triggers
     a30:	sw	a2,0(a4)
	*VG_ADDR = (Y << 7) | X;  // store into the address IO register
     a34:	sw	t5,0(a3)
	*VG_COLOR = color;  // store into the color IO register, which triggers
     a38:	sw	a2,0(a4)
	*VG_ADDR = (Y << 7) | X;  // store into the address IO register
     a3c:	sw	t4,0(a3)
	*VG_COLOR = color;  // store into the color IO register, which triggers
     a40:	sw	a2,0(a4)
	*VG_ADDR = (Y << 7) | X;  // store into the address IO register
     a44:	sw	t3,0(a3)
	*VG_COLOR = color;  // store into the color IO register, which triggers
     a48:	sw	a2,0(a4)
	*VG_ADDR = (Y << 7) | X;  // store into the address IO register
     a4c:	sw	t1,0(a3)
	*VG_COLOR = color;  // store into the color IO register, which triggers
     a50:	sw	a2,0(a4)
	*VG_ADDR = (Y << 7) | X;  // store into the address IO register
     a54:	sw	a6,0(a3)
	*VG_COLOR = color;  // store into the color IO register, which triggers
     a58:	sw	a2,0(a4)
	*VG_ADDR = (Y << 7) | X;  // store into the address IO register
     a5c:	sw	a0,0(a3)
	*VG_COLOR = color;  // store into the color IO register, which triggers
     a60:	sw	a2,0(a4)
	*VG_ADDR = (Y << 7) | X;  // store into the address IO register
     a64:	addi	s8,a5,-989
     a68:	sw	s8,0(a3)
	*VG_COLOR = color;  // store into the color IO register, which triggers
     a6c:	sw	a2,0(a4)
	*VG_ADDR = (Y << 7) | X;  // store into the address IO register
     a70:	addi	s8,a5,-861
     a74:	sw	s8,0(a3)
	*VG_COLOR = color;  // store into the color IO register, which triggers
     a78:	sw	a2,0(a4)
	*VG_ADDR = (Y << 7) | X;  // store into the address IO register
     a7c:	addi	s8,a5,-733
     a80:	sw	s8,0(a3)
	*VG_COLOR = color;  // store into the color IO register, which triggers
     a84:	sw	a2,0(a4)
	*VG_ADDR = (Y << 7) | X;  // store into the address IO register
     a88:	addi	s8,a5,-605
     a8c:	sw	s8,0(a3)
	*VG_COLOR = color;  // store into the color IO register, which triggers
     a90:	sw	a2,0(a4)
	*VG_ADDR = (Y << 7) | X;  // store into the address IO register
     a94:	addi	s8,a5,-1115
     a98:	sw	s8,0(a3)
	*VG_COLOR = color;  // store into the color IO register, which triggers
     a9c:	sw	a2,0(a4)
	*VG_ADDR = (Y << 7) | X;  // store into the address IO register
     aa0:	addi	s8,a5,-987
     aa4:	sw	s8,0(a3)
	*VG_COLOR = color;  // store into the color IO register, which triggers
     aa8:	sw	a2,0(a4)
	*VG_ADDR = (Y << 7) | X;  // store into the address IO register
     aac:	addi	s8,a5,-859
     ab0:	sw	s8,0(a3)
	*VG_COLOR = color;  // store into the color IO register, which triggers
     ab4:	sw	a2,0(a4)
	*VG_ADDR = (Y << 7) | X;  // store into the address IO register
     ab8:	addi	s8,a5,-731
     abc:	sw	s8,0(a3)
	*VG_COLOR = color;  // store into the color IO register, which triggers
     ac0:	sw	a2,0(a4)
	*VG_ADDR = (Y << 7) | X;  // store into the address IO register
     ac4:	addi	s8,a5,-603
     ac8:	sw	s8,0(a3)
	*VG_COLOR = color;  // store into the color IO register, which triggers
     acc:	sw	a2,0(a4)
	*VG_ADDR = (Y << 7) | X;  // store into the address IO register
     ad0:	addi	s8,a5,-1116
     ad4:	sw	s8,0(a3)
	*VG_COLOR = color;  // store into the color IO register, which triggers
     ad8:	sw	a2,0(a4)
	*VG_ADDR = (Y << 7) | X;  // store into the address IO register
     adc:	addi	s8,a5,-860
     ae0:	sw	s8,0(a3)
	*VG_COLOR = color;  // store into the color IO register, which triggers
     ae4:	sw	a2,0(a4)
	*VG_ADDR = (Y << 7) | X;  // store into the address IO register
     ae8:	addi	s8,a5,-1113
     aec:	sw	s8,0(a3)
	*VG_COLOR = color;  // store into the color IO register, which triggers
     af0:	sw	a2,0(a4)
	*VG_ADDR = (Y << 7) | X;  // store into the address IO register
     af4:	addi	s8,a5,-985
     af8:	sw	s8,0(a3)
	*VG_COLOR = color;  // store into the color IO register, which triggers
     afc:	sw	a2,0(a4)
	*VG_ADDR = (Y << 7) | X;  // store into the address IO register
     b00:	addi	s8,a5,-1111
     b04:	sw	s8,0(a3)
	*VG_COLOR = color;  // store into the color IO register, which triggers
     b08:	sw	a2,0(a4)
	*VG_ADDR = (Y << 7) | X;  // store into the address IO register
     b0c:	addi	s8,a5,-983
     b10:	sw	s8,0(a3)
     b14:	addi	s8,a5,-856
	*VG_COLOR = color;  // store into the color IO register, which triggers
     b18:	sw	a2,0(a4)
	*VG_ADDR = (Y << 7) | X;  // store into the address IO register
     b1c:	sw	s8,0(a3)
	*VG_COLOR = color;  // store into the color IO register, which triggers
     b20:	sw	a2,0(a4)
	*VG_ADDR = (Y << 7) | X;  // store into the address IO register
     b24:	addi	s8,a5,-728
     b28:	sw	s8,0(a3)
	*VG_COLOR = color;  // store into the color IO register, which triggers
     b2c:	sw	a2,0(a4)
	*VG_ADDR = (Y << 7) | X;  // store into the address IO register
     b30:	addi	s8,a5,-600
     b34:	sw	s8,0(a3)
	*VG_COLOR = color;  // store into the color IO register, which triggers
     b38:	sw	a2,0(a4)
	*VG_ADDR = (Y << 7) | X;  // store into the address IO register
     b3c:	addi	s8,a5,-1109
     b40:	sw	s8,0(a3)
	*VG_COLOR = color;  // store into the color IO register, which triggers
     b44:	sw	a2,0(a4)
	*VG_ADDR = (Y << 7) | X;  // store into the address IO register
     b48:	addi	s8,a5,-981
     b4c:	sw	s8,0(a3)
	*VG_COLOR = color;  // store into the color IO register, which triggers
     b50:	sw	a2,0(a4)
	*VG_ADDR = (Y << 7) | X;  // store into the address IO register
     b54:	addi	s8,a5,-853
     b58:	sw	s8,0(a3)
	*VG_COLOR = color;  // store into the color IO register, which triggers
     b5c:	sw	a2,0(a4)
	*VG_ADDR = (Y << 7) | X;  // store into the address IO register
     b60:	addi	s8,a5,-725
     b64:	sw	s8,0(a3)
	*VG_COLOR = color;  // store into the color IO register, which triggers
     b68:	sw	a2,0(a4)
	*VG_ADDR = (Y << 7) | X;  // store into the address IO register
     b6c:	addi	s8,a5,-597
     b70:	sw	s8,0(a3)
	*VG_COLOR = color;  // store into the color IO register, which triggers
     b74:	sw	a2,0(a4)
	*VG_ADDR = (Y << 7) | X;  // store into the address IO register
     b78:	addi	s8,a5,-1108
     b7c:	sw	s8,0(a3)
	*VG_COLOR = color;  // store into the color IO register, which triggers
     b80:	sw	a2,0(a4)
	*VG_ADDR = (Y << 7) | X;  // store into the address IO register
     b84:	addi	s8,a5,-1107
     b88:	sw	s8,0(a3)
	*VG_COLOR = color;  // store into the color IO register, which triggers
     b8c:	sw	a2,0(a4)
	*VG_ADDR = (Y << 7) | X;  // store into the address IO register
     b90:	addi	s8,a5,-596
     b94:	sw	s8,0(a3)
	*VG_COLOR = color;  // store into the color IO register, which triggers
     b98:	sw	a2,0(a4)
	*VG_ADDR = (Y << 7) | X;  // store into the address IO register
     b9c:	addi	s8,a5,-595
     ba0:	sw	s8,0(a3)
	*VG_COLOR = color;  // store into the color IO register, which triggers
     ba4:	sw	a2,0(a4)
	*VG_ADDR = (Y << 7) | X;  // store into the address IO register
     ba8:	addi	s8,a5,-852
     bac:	sw	s8,0(a3)
	*VG_COLOR = color;  // store into the color IO register, which triggers
     bb0:	sw	a2,0(a4)
	*VG_ADDR = (Y << 7) | X;  // store into the address IO register
     bb4:	addi	s8,a5,-1105
     bb8:	sw	s8,0(a3)
	*VG_COLOR = color;  // store into the color IO register, which triggers
     bbc:	sw	a2,0(a4)
	*VG_ADDR = (Y << 7) | X;  // store into the address IO register
     bc0:	addi	s8,a5,-977
     bc4:	sw	s8,0(a3)
	*VG_COLOR = color;  // store into the color IO register, which triggers
     bc8:	sw	a2,0(a4)
	*VG_ADDR = (Y << 7) | X;  // store into the address IO register
     bcc:	addi	s8,a5,-849
     bd0:	sw	s8,0(a3)
	*VG_COLOR = color;  // store into the color IO register, which triggers
     bd4:	sw	a2,0(a4)
	*VG_ADDR = (Y << 7) | X;  // store into the address IO register
     bd8:	addi	s8,a5,-721
     bdc:	sw	s8,0(a3)
	*VG_COLOR = color;  // store into the color IO register, which triggers
     be0:	sw	a2,0(a4)
	*VG_ADDR = (Y << 7) | X;  // store into the address IO register
     be4:	addi	s8,a5,-593
     be8:	sw	s8,0(a3)
	*VG_COLOR = color;  // store into the color IO register, which triggers
     bec:	sw	a2,0(a4)
	*VG_ADDR = (Y << 7) | X;  // store into the address IO register
     bf0:	addi	s8,a5,-1103
     bf4:	sw	s8,0(a3)
	*VG_COLOR = color;  // store into the color IO register, which triggers
     bf8:	sw	a2,0(a4)
	*VG_ADDR = (Y << 7) | X;  // store into the address IO register
     bfc:	addi	s8,a5,-975
     c00:	sw	s8,0(a3)
	*VG_COLOR = color;  // store into the color IO register, which triggers
     c04:	sw	a2,0(a4)
	*VG_ADDR = (Y << 7) | X;  // store into the address IO register
     c08:	addi	s8,a5,-719
     c0c:	sw	s8,0(a3)
	*VG_COLOR = color;  // store into the color IO register, which triggers
     c10:	sw	a2,0(a4)
	*VG_ADDR = (Y << 7) | X;  // store into the address IO register
     c14:	addi	s8,a5,-591
     c18:	sw	s8,0(a3)
	*VG_COLOR = color;  // store into the color IO register, which triggers
     c1c:	sw	a2,0(a4)
	*VG_ADDR = (Y << 7) | X;  // store into the address IO register
     c20:	addi	s8,a5,-1104
     c24:	sw	s8,0(a3)
	*VG_COLOR = color;  // store into the color IO register, which triggers
     c28:	sw	a2,0(a4)
	*VG_ADDR = (Y << 7) | X;  // store into the address IO register
     c2c:	addi	s8,a5,-848
     c30:	sw	s8,0(a3)
	*VG_COLOR = color;  // store into the color IO register, which triggers
     c34:	sw	a2,0(a4)
	*VG_ADDR = (Y << 7) | X;  // store into the address IO register
     c38:	addi	s8,a5,-98
     c3c:	sw	s8,0(a3)
	*VG_COLOR = color;  // store into the color IO register, which triggers
     c40:	sw	a2,0(a4)
	*VG_ADDR = (Y << 7) | X;  // store into the address IO register
     c44:	addi	s8,a5,30
     c48:	sw	s8,0(a3)
	*VG_COLOR = color;  // store into the color IO register, which triggers
     c4c:	sw	a2,0(a4)
	*VG_ADDR = (Y << 7) | X;  // store into the address IO register
     c50:	addi	s8,a5,158
     c54:	sw	s8,0(a3)
	*VG_COLOR = color;  // store into the color IO register, which triggers
     c58:	sw	a2,0(a4)
	*VG_ADDR = (Y << 7) | X;  // store into the address IO register
     c5c:	addi	s8,a5,286
     c60:	sw	s8,0(a3)
	*VG_COLOR = color;  // store into the color IO register, which triggers
     c64:	sw	a2,0(a4)
	*VG_ADDR = (Y << 7) | X;  // store into the address IO register
     c68:	addi	s8,a5,-94
     c6c:	sw	s8,0(a3)
	*VG_COLOR = color;  // store into the color IO register, which triggers
     c70:	sw	a2,0(a4)
	*VG_ADDR = (Y << 7) | X;  // store into the address IO register
     c74:	addi	s8,a5,34
     c78:	sw	s8,0(a3)
	*VG_COLOR = color;  // store into the color IO register, which triggers
     c7c:	sw	a2,0(a4)
	*VG_ADDR = (Y << 7) | X;  // store into the address IO register
     c80:	addi	s8,a5,162
     c84:	sw	s8,0(a3)
	*VG_COLOR = color;  // store into the color IO register, which triggers
     c88:	sw	a2,0(a4)
	*VG_ADDR = (Y << 7) | X;  // store into the address IO register
     c8c:	addi	s8,a5,290
     c90:	sw	s8,0(a3)
	*VG_COLOR = color;  // store into the color IO register, which triggers
     c94:	sw	a2,0(a4)
	*VG_ADDR = (Y << 7) | X;  // store into the address IO register
     c98:	addi	s8,a5,160
     c9c:	sw	s8,0(a3)
     ca0:	addi	s8,a5,288
	*VG_COLOR = color;  // store into the color IO register, which triggers
     ca4:	sw	a2,0(a4)
	*VG_ADDR = (Y << 7) | X;  // store into the address IO register
     ca8:	sw	s8,0(a3)
	*VG_COLOR = color;  // store into the color IO register, which triggers
     cac:	sw	a2,0(a4)
	*VG_ADDR = (Y << 7) | X;  // store into the address IO register
     cb0:	addi	s8,a5,415
     cb4:	sw	s8,0(a3)
	*VG_COLOR = color;  // store into the color IO register, which triggers
     cb8:	sw	a2,0(a4)
	*VG_ADDR = (Y << 7) | X;  // store into the address IO register
     cbc:	addi	s8,a5,417
     cc0:	sw	s8,0(a3)
	*VG_COLOR = color;  // store into the color IO register, which triggers
     cc4:	sw	a2,0(a4)
	*VG_ADDR = (Y << 7) | X;  // store into the address IO register
     cc8:	addi	s8,a5,-92
     ccc:	sw	s8,0(a3)
	*VG_COLOR = color;  // store into the color IO register, which triggers
     cd0:	sw	a2,0(a4)
	*VG_ADDR = (Y << 7) | X;  // store into the address IO register
     cd4:	addi	s8,a5,-91
     cd8:	sw	s8,0(a3)
	*VG_COLOR = color;  // store into the color IO register, which triggers
     cdc:	sw	a2,0(a4)
	*VG_ADDR = (Y << 7) | X;  // store into the address IO register
     ce0:	addi	s8,a5,-90
     ce4:	sw	s8,0(a3)
	*VG_COLOR = color;  // store into the color IO register, which triggers
     ce8:	sw	a2,0(a4)
	*VG_ADDR = (Y << 7) | X;  // store into the address IO register
     cec:	addi	s8,a5,420
     cf0:	sw	s8,0(a3)
	*VG_COLOR = color;  // store into the color IO register, which triggers
     cf4:	sw	a2,0(a4)
	*VG_ADDR = (Y << 7) | X;  // store into the address IO register
     cf8:	addi	s8,a5,421
     cfc:	sw	s8,0(a3)
	*VG_COLOR = color;  // store into the color IO register, which triggers
     d00:	sw	a2,0(a4)
	*VG_ADDR = (Y << 7) | X;  // store into the address IO register
     d04:	addi	s8,a5,422
     d08:	sw	s8,0(a3)
	*VG_COLOR = color;  // store into the color IO register, which triggers
     d0c:	sw	a2,0(a4)
	*VG_ADDR = (Y << 7) | X;  // store into the address IO register
     d10:	addi	s8,a5,37
     d14:	sw	s8,0(a3)
	*VG_COLOR = color;  // store into the color IO register, which triggers
     d18:	sw	a2,0(a4)
	*VG_ADDR = (Y << 7) | X;  // store into the address IO register
     d1c:	addi	s8,a5,165
     d20:	sw	s8,0(a3)
	*VG_COLOR = color;  // store into the color IO register, which triggers
     d24:	sw	a2,0(a4)
	*VG_ADDR = (Y << 7) | X;  // store into the address IO register
     d28:	addi	s8,a5,293
     d2c:	sw	s8,0(a3)
	*VG_COLOR = color;  // store into the color IO register, which triggers
     d30:	sw	a2,0(a4)
	*VG_ADDR = (Y << 7) | X;  // store into the address IO register
     d34:	addi	s8,a5,-88
     d38:	sw	s8,0(a3)
	*VG_COLOR = color;  // store into the color IO register, which triggers
     d3c:	sw	a2,0(a4)
	*VG_ADDR = (Y << 7) | X;  // store into the address IO register
     d40:	addi	s8,a5,40
     d44:	sw	s8,0(a3)
	*VG_COLOR = color;  // store into the color IO register, which triggers
     d48:	sw	a2,0(a4)
	*VG_ADDR = (Y << 7) | X;  // store into the address IO register
     d4c:	addi	s8,a5,168
     d50:	sw	s8,0(a3)
	*VG_COLOR = color;  // store into the color IO register, which triggers
     d54:	sw	a2,0(a4)
	*VG_ADDR = (Y << 7) | X;  // store into the address IO register
     d58:	addi	s8,a5,296
     d5c:	sw	s8,0(a3)
	*VG_COLOR = color;  // store into the color IO register, which triggers
     d60:	sw	a2,0(a4)
	*VG_ADDR = (Y << 7) | X;  // store into the address IO register
     d64:	addi	s8,a5,424
     d68:	sw	s8,0(a3)
	*VG_COLOR = color;  // store into the color IO register, which triggers
     d6c:	sw	a2,0(a4)
	*VG_ADDR = (Y << 7) | X;  // store into the address IO register
     d70:	addi	s8,a5,-85
     d74:	sw	s8,0(a3)
	*VG_COLOR = color;  // store into the color IO register, which triggers
     d78:	sw	a2,0(a4)
	*VG_ADDR = (Y << 7) | X;  // store into the address IO register
     d7c:	addi	s8,a5,43
     d80:	sw	s8,0(a3)
	*VG_COLOR = color;  // store into the color IO register, which triggers
     d84:	sw	a2,0(a4)
	*VG_ADDR = (Y << 7) | X;  // store into the address IO register
     d88:	addi	s8,a5,171
     d8c:	sw	s8,0(a3)
	*VG_COLOR = color;  // store into the color IO register, which triggers
     d90:	sw	a2,0(a4)
	*VG_ADDR = (Y << 7) | X;  // store into the address IO register
     d94:	addi	s8,a5,299
     d98:	sw	s8,0(a3)
	*VG_COLOR = color;  // store into the color IO register, which triggers
     d9c:	sw	a2,0(a4)
	*VG_ADDR = (Y << 7) | X;  // store into the address IO register
     da0:	addi	s8,a5,427
     da4:	sw	s8,0(a3)
	*VG_COLOR = color;  // store into the color IO register, which triggers
     da8:	sw	a2,0(a4)
	*VG_ADDR = (Y << 7) | X;  // store into the address IO register
     dac:	addi	s8,a5,169
     db0:	sw	s8,0(a3)
	*VG_COLOR = color;  // store into the color IO register, which triggers
     db4:	sw	a2,0(a4)
	*VG_ADDR = (Y << 7) | X;  // store into the address IO register
     db8:	addi	s8,a5,298
     dbc:	sw	s8,0(a3)
	*VG_COLOR = color;  // store into the color IO register, which triggers
     dc0:	sw	a2,0(a4)
	*VG_ADDR = (Y << 7) | X;  // store into the address IO register
     dc4:	addi	s8,a5,-83
     dc8:	sw	s8,0(a3)
	*VG_COLOR = color;  // store into the color IO register, which triggers
     dcc:	sw	a2,0(a4)
	*VG_ADDR = (Y << 7) | X;  // store into the address IO register
     dd0:	addi	s8,a5,-82
     dd4:	sw	s8,0(a3)
	*VG_COLOR = color;  // store into the color IO register, which triggers
     dd8:	sw	a2,0(a4)
	*VG_ADDR = (Y << 7) | X;  // store into the address IO register
     ddc:	addi	s8,a5,-81
     de0:	sw	s8,0(a3)
	*VG_COLOR = color;  // store into the color IO register, which triggers
     de4:	sw	a2,0(a4)
	*VG_ADDR = (Y << 7) | X;  // store into the address IO register
     de8:	addi	s8,a5,173
     dec:	sw	s8,0(a3)
	*VG_COLOR = color;  // store into the color IO register, which triggers
     df0:	sw	a2,0(a4)
	*VG_ADDR = (Y << 7) | X;  // store into the address IO register
     df4:	addi	s8,a5,174
     df8:	sw	s8,0(a3)
	*VG_COLOR = color;  // store into the color IO register, which triggers
     dfc:	sw	a2,0(a4)
	*VG_ADDR = (Y << 7) | X;  // store into the address IO register
     e00:	addi	s8,a5,175
     e04:	sw	s8,0(a3)
	*VG_COLOR = color;  // store into the color IO register, which triggers
     e08:	sw	a2,0(a4)
	*VG_ADDR = (Y << 7) | X;  // store into the address IO register
     e0c:	addi	s8,a5,429
     e10:	sw	s8,0(a3)
	*VG_COLOR = color;  // store into the color IO register, which triggers
     e14:	sw	a2,0(a4)
	*VG_ADDR = (Y << 7) | X;  // store into the address IO register
     e18:	addi	s8,a5,430
     e1c:	sw	s8,0(a3)
	*VG_COLOR = color;  // store into the color IO register, which triggers
     e20:	sw	a2,0(a4)
	*VG_ADDR = (Y << 7) | X;  // store into the address IO register
     e24:	addi	s8,a5,431
     e28:	sw	s8,0(a3)
     e2c:	addi	s8,a5,45
	*VG_COLOR = color;  // store into the color IO register, which triggers
     e30:	sw	a2,0(a4)
	*VG_ADDR = (Y << 7) | X;  // store into the address IO register
     e34:	sw	s8,0(a3)
	*VG_COLOR = color;  // store into the color IO register, which triggers
     e38:	sw	a2,0(a4)
	*VG_ADDR = (Y << 7) | X;  // store into the address IO register
     e3c:	addi	s8,a5,303
     e40:	sw	s8,0(a3)
	*VG_COLOR = color;  // store into the color IO register, which triggers
     e44:	sw	a2,0(a4)
			if(paddle1.score == 5) draw1(52, 23, WHITE_COLOR);
     e48:	lw	s9,24(a7)
     e4c:	li	s8,5
     e50:	beq	s9,s8,12b0 <__global_pointer$+0x558>
	*VG_ADDR = (Y << 7) | X;  // store into the address IO register
     e54:	addi	s8,a5,-1100
     e58:	sw	s8,0(a3)
	*VG_COLOR = color;  // store into the color IO register, which triggers
     e5c:	sw	a1,0(a4)
	*VG_ADDR = (Y << 7) | X;  // store into the address IO register
     e60:	addi	s8,a5,-1099
     e64:	sw	s8,0(a3)
	*VG_COLOR = color;  // store into the color IO register, which triggers
     e68:	sw	a1,0(a4)
	*VG_ADDR = (Y << 7) | X;  // store into the address IO register
     e6c:	addi	s8,a5,-1098
     e70:	sw	s8,0(a3)
	*VG_COLOR = color;  // store into the color IO register, which triggers
     e74:	sw	a1,0(a4)
	*VG_ADDR = (Y << 7) | X;  // store into the address IO register
     e78:	addi	s8,a5,-844
     e7c:	sw	s8,0(a3)
	*VG_COLOR = color;  // store into the color IO register, which triggers
     e80:	sw	a1,0(a4)
	*VG_ADDR = (Y << 7) | X;  // store into the address IO register
     e84:	addi	s8,a5,-843
     e88:	sw	s8,0(a3)
	*VG_COLOR = color;  // store into the color IO register, which triggers
     e8c:	sw	a1,0(a4)
	*VG_ADDR = (Y << 7) | X;  // store into the address IO register
     e90:	addi	s8,a5,-842
     e94:	sw	s8,0(a3)
	*VG_COLOR = color;  // store into the color IO register, which triggers
     e98:	sw	a1,0(a4)
	*VG_ADDR = (Y << 7) | X;  // store into the address IO register
     e9c:	addi	s8,a5,-588
     ea0:	sw	s8,0(a3)
	*VG_COLOR = color;  // store into the color IO register, which triggers
     ea4:	sw	a1,0(a4)
	*VG_ADDR = (Y << 7) | X;  // store into the address IO register
     ea8:	addi	s8,a5,-587
     eac:	sw	s8,0(a3)
	*VG_COLOR = color;  // store into the color IO register, which triggers
     eb0:	sw	a1,0(a4)
	*VG_ADDR = (Y << 7) | X;  // store into the address IO register
     eb4:	addi	s8,a5,-586
     eb8:	sw	s8,0(a3)
	*VG_COLOR = color;  // store into the color IO register, which triggers
     ebc:	sw	a1,0(a4)
	*VG_ADDR = (Y << 7) | X;  // store into the address IO register
     ec0:	addi	s8,a5,-970
     ec4:	sw	s8,0(a3)
	*VG_COLOR = color;  // store into the color IO register, which triggers
     ec8:	sw	a1,0(a4)
	*VG_ADDR = (Y << 7) | X;  // store into the address IO register
     ecc:	addi	s8,a5,-716
     ed0:	sw	s8,0(a3)
	*VG_COLOR = color;  // store into the color IO register, which triggers
     ed4:	sw	a1,0(a4)
     ed8:	j	9d4 <main+0x47c>
		draw_vertical_line(paddle->x, paddle->y, paddle->y + paddle->w, BG_COLOR); // Clear this paddle
     edc:	lw	s7,1760(gp) # 1438 <paddle2>
     ee0:	lw	a5,4(t1)
     ee4:	lw	a6,4(t1)
     ee8:	lw	a2,8(t1)
     eec:	add	a6,a6,a2
	toY++;
     ef0:	addi	a6,a6,1
	for (; Y != toY; Y++) {
     ef4:	beq	a5,a6,f10 <__global_pointer$+0x1b8>
	*VG_ADDR = (Y << 7) | X;  // store into the address IO register
     ef8:	slli	a2,a5,0x7
     efc:	or	a2,a2,s7
     f00:	sw	a2,0(a4)
	*VG_COLOR = color;  // store into the color IO register, which triggers
     f04:	sw	zero,0(a3)
	for (; Y != toY; Y++) {
     f08:	addi	a5,a5,1
     f0c:	bne	a5,a6,ef8 <__global_pointer$+0x1a0>
		if(59 - (paddle->y + paddle->w + p_dy) >= 0) { 
     f10:	lw	a5,4(t1)
     f14:	lw	a2,8(t1)
     f18:	add	a5,a5,a2
     f1c:	add	a5,a5,s6
     f20:	sub	a5,s0,a5
     f24:	bltz	a5,1084 <__global_pointer$+0x32c>
			paddle->y = paddle->y + p_dy;
     f28:	lw	a5,4(t1)
     f2c:	add	s6,s6,a5
     f30:	sw	s6,4(t1)
     f34:	j	7d4 <main+0x27c>
		draw_vertical_line(paddle->x, paddle->y, paddle->y + paddle->w, BG_COLOR); // Clear this paddle
     f38:	lw	s7,1728(gp) # 1418 <paddle1>
     f3c:	lw	a5,4(a7)
     f40:	lw	a6,4(a7)
     f44:	lw	a2,8(a7)
     f48:	add	a6,a6,a2
	toY++;
     f4c:	addi	a6,a6,1
	for (; Y != toY; Y++) {
     f50:	beq	a5,a6,f6c <__global_pointer$+0x214>
	*VG_ADDR = (Y << 7) | X;  // store into the address IO register
     f54:	slli	a2,a5,0x7
     f58:	or	a2,a2,s7
     f5c:	sw	a2,0(a4)
	*VG_COLOR = color;  // store into the color IO register, which triggers
     f60:	sw	zero,0(a3)
	for (; Y != toY; Y++) {
     f64:	addi	a5,a5,1
     f68:	bne	a5,a6,f54 <__global_pointer$+0x1fc>
		if(59 - (paddle->y + paddle->w + p_dy) >= 0) { 
     f6c:	lw	a5,4(a7)
     f70:	lw	a2,8(a7)
     f74:	add	a5,a5,a2
     f78:	add	a5,a5,s6
     f7c:	sub	a5,s0,a5
     f80:	bltz	a5,108c <__global_pointer$+0x334>
			paddle->y = paddle->y + p_dy;
     f84:	lw	a5,4(a7)
     f88:	add	s6,s6,a5
     f8c:	sw	s6,4(a7)
     f90:	j	774 <main+0x21c>
	if((paddle->id == 1) && (swt_val >> 15 == 1)) {
     f94:	srai	a6,a2,0xf
		p_dy = 4;
     f98:	li	s6,4
	if((paddle->id == 1) && (swt_val >> 15 == 1)) {
     f9c:	beq	a6,t3,7c4 <main+0x26c>
	else if((paddle->id == 2) && ((swt_val & 1) == 1)) {
     fa0:	lw	a6,28(t1)
	int p_dy = 1;
     fa4:	li	s6,1
	else if((paddle->id == 2) && ((swt_val & 1) == 1)) {
     fa8:	bne	a6,t6,7c4 <main+0x26c>
     fac:	andi	a2,a2,1
     fb0:	beqz	a2,7c4 <main+0x26c>
		p_dy = 4;
     fb4:	li	s6,4
     fb8:	j	7c4 <main+0x26c>
	if((paddle->id == 1) && (swt_val >> 15 == 1)) {
     fbc:	srai	a6,a2,0xf
		p_dy = 4;
     fc0:	li	s6,4
	if((paddle->id == 1) && (swt_val >> 15 == 1)) {
     fc4:	beq	a6,t3,764 <main+0x20c>
	else if((paddle->id == 2) && ((swt_val & 1) == 1)) {
     fc8:	lw	a6,28(a7)
	int p_dy = 1;
     fcc:	li	s6,1
	else if((paddle->id == 2) && ((swt_val & 1) == 1)) {
     fd0:	bne	a6,t6,764 <main+0x20c>
     fd4:	andi	a2,a2,1
     fd8:	beqz	a2,764 <main+0x20c>
		p_dy = 4;
     fdc:	li	s6,4
     fe0:	j	764 <main+0x20c>
		draw_vertical_line(paddle->x, paddle->y, paddle->y + paddle->w, BG_COLOR); // Clear this paddle
     fe4:	lw	s7,1728(gp) # 1418 <paddle1>
     fe8:	lw	a5,4(a7)
     fec:	lw	a6,4(a7)
     ff0:	lw	a2,8(a7)
     ff4:	add	a6,a6,a2
	toY++;
     ff8:	addi	a6,a6,1
	for (; Y != toY; Y++) {
     ffc:	beq	a5,a6,1018 <__global_pointer$+0x2c0>
	*VG_ADDR = (Y << 7) | X;  // store into the address IO register
    1000:	slli	a2,a5,0x7
    1004:	or	a2,a2,s7
    1008:	sw	a2,0(a4)
	*VG_COLOR = color;  // store into the color IO register, which triggers
    100c:	sw	zero,0(a3)
	for (; Y != toY; Y++) {
    1010:	addi	a5,a5,1
    1014:	bne	a5,a6,1000 <__global_pointer$+0x2a8>
		if((paddle->y - p_dy) >= 0) {
    1018:	lw	a5,4(a7)
    101c:	sub	a5,a5,s6
    1020:	bltz	a5,109c <__global_pointer$+0x344>
			paddle->y = paddle->y - p_dy;	
    1024:	lw	a5,4(a7)
    1028:	sub	s6,a5,s6
    102c:	sw	s6,4(a7)
    1030:	j	774 <main+0x21c>
		draw_vertical_line(paddle->x, paddle->y, paddle->y + paddle->w, BG_COLOR); // Clear this paddle
    1034:	lw	s7,1760(gp) # 1438 <paddle2>
    1038:	lw	a5,4(t1)
    103c:	lw	a6,4(t1)
    1040:	lw	a2,8(t1)
    1044:	add	a6,a6,a2
	toY++;
    1048:	addi	a6,a6,1
	for (; Y != toY; Y++) {
    104c:	beq	a5,a6,1068 <__global_pointer$+0x310>
	*VG_ADDR = (Y << 7) | X;  // store into the address IO register
    1050:	slli	a2,a5,0x7
    1054:	or	a2,a2,s7
    1058:	sw	a2,0(a4)
	*VG_COLOR = color;  // store into the color IO register, which triggers
    105c:	sw	zero,0(a3)
	for (; Y != toY; Y++) {
    1060:	addi	a5,a5,1
    1064:	bne	a5,a6,1050 <__global_pointer$+0x2f8>
		if((paddle->y - p_dy) >= 0) {
    1068:	lw	a5,4(t1)
    106c:	sub	a5,a5,s6
    1070:	bltz	a5,1094 <__global_pointer$+0x33c>
			paddle->y = paddle->y - p_dy;	
    1074:	lw	a5,4(t1)
    1078:	sub	s6,a5,s6
    107c:	sw	s6,4(t1)
    1080:	j	7d4 <main+0x27c>
			paddle->y = 55;
    1084:	sw	s2,4(t1)
    1088:	j	7d4 <main+0x27c>
    108c:	sw	s2,4(a7)
    1090:	j	774 <main+0x21c>
			paddle->y = 0;
    1094:	sw	zero,4(t1)
    1098:	j	7d4 <main+0x27c>
    109c:	sw	zero,4(a7)
    10a0:	j	774 <main+0x21c>
	if(b->x > p->x+1) return 0;	// returns 0 if ball is to the right of the left paddle
    10a4:	lw	a2,1792(gp) # 1458 <ball>
    10a8:	lw	a5,1760(gp) # 1438 <paddle2>
    10ac:	addi	a5,a5,1
    10b0:	blt	a5,a2,92c <main+0x3d4>
	if(b->x < p->x-1) return 0;	// returns 0 if ball is to the left of the right paddle
    10b4:	lw	a2,1792(gp) # 1458 <ball>
    10b8:	lw	a5,1760(gp) # 1438 <paddle2>
    10bc:	addi	a5,a5,-1
    10c0:	blt	a2,a5,92c <main+0x3d4>
	if(b->y > p->y +4) return 0;	// returns 0 if ball is below the paddle
    10c4:	lw	a2,4(s1)
    10c8:	lw	a5,4(t1)
    10cc:	addi	a5,a5,4
    10d0:	blt	a5,a2,92c <main+0x3d4>
	if(b->y < p->y-1) return 0;	// returns 0 if ball is above the paddle
    10d4:	lw	a2,4(s1)
    10d8:	lw	a5,4(t1)
    10dc:	addi	a5,a5,-1
    10e0:	blt	a2,a5,92c <main+0x3d4>
		int hit_location = (paddle2.y+4) - ball.y;
    10e4:	lw	a5,4(t1)
    10e8:	lw	a2,4(s1)
    10ec:	addi	a5,a5,4
    10f0:	sub	a5,a5,a2
		if(hit_location == 0) b->dy = 3;	// Hit the Very Top
    10f4:	beqz	a5,918 <main+0x3c0>
		if(hit_location == 1) b->dy = 2;
    10f8:	bne	a5,t3,129c <__global_pointer$+0x544>
    10fc:	sw	t6,12(s1)
		if(hit_location == 4) b->dy = -3;	//Hit the Very Bottom
    1100:	j	920 <main+0x3c8>
		draw_vertical_line(paddle->x, paddle->y, paddle->y + paddle->w, BG_COLOR); // Clear this paddle
    1104:	lw	s6,1760(gp) # 1438 <paddle2>
    1108:	lw	a5,4(t1)
    110c:	lw	a2,4(t1)
    1110:	lw	a1,8(t1)
    1114:	add	a2,a2,a1
	toY++;
    1118:	addi	a2,a2,1
	for (; Y != toY; Y++) {
    111c:	beq	a5,a2,1138 <__global_pointer$+0x3e0>
	*VG_ADDR = (Y << 7) | X;  // store into the address IO register
    1120:	slli	a1,a5,0x7
    1124:	or	a1,a1,s6
    1128:	sw	a1,0(a4)
	*VG_COLOR = color;  // store into the color IO register, which triggers
    112c:	sw	zero,0(a3)
	for (; Y != toY; Y++) {
    1130:	addi	a5,a5,1
    1134:	bne	a2,a5,1120 <__global_pointer$+0x3c8>
		if(59 - (paddle->y + paddle->w + p_dy) >= 0) { 
    1138:	lw	a5,4(t1)
    113c:	lw	a2,8(t1)
    1140:	add	a5,a5,a2
    1144:	add	a5,a5,a6
    1148:	sub	a5,s0,a5
    114c:	bltz	a5,1324 <__global_pointer$+0x5cc>
			paddle->y = paddle->y + p_dy;
    1150:	lw	a5,4(t1)
    1154:	add	a6,a6,a5
    1158:	sw	a6,4(t1)
    115c:	j	70c <main+0x1b4>
		draw_vertical_line(paddle->x, paddle->y, paddle->y + paddle->w, BG_COLOR); // Clear this paddle
    1160:	lw	s6,1728(gp) # 1418 <paddle1>
    1164:	lw	a5,4(a7)
    1168:	lw	a2,4(a7)
    116c:	lw	a1,8(a7)
    1170:	add	a2,a2,a1
	toY++;
    1174:	addi	a2,a2,1
	for (; Y != toY; Y++) {
    1178:	beq	a5,a2,1194 <__global_pointer$+0x43c>
	*VG_ADDR = (Y << 7) | X;  // store into the address IO register
    117c:	slli	a1,a5,0x7
    1180:	or	a1,a1,s6
    1184:	sw	a1,0(a4)
	*VG_COLOR = color;  // store into the color IO register, which triggers
    1188:	sw	zero,0(a3)
	for (; Y != toY; Y++) {
    118c:	addi	a5,a5,1
    1190:	bne	a2,a5,117c <__global_pointer$+0x424>
		if(59 - (paddle->y + paddle->w + p_dy) >= 0) { 
    1194:	lw	a5,4(a7)
    1198:	lw	a2,8(a7)
    119c:	add	a5,a5,a2
    11a0:	add	a5,a5,a6
    11a4:	sub	a5,s0,a5
    11a8:	bltz	a5,131c <__global_pointer$+0x5c4>
			paddle->y = paddle->y + p_dy;
    11ac:	lw	a5,4(a7)
    11b0:	add	a6,a6,a5
    11b4:	sw	a6,4(a7)
    11b8:	j	6ac <main+0x154>
	else if((paddle->id == 2) && ((swt_val & 1) == 1)) {
    11bc:	andi	a5,a5,1
    11c0:	beqz	a5,6fc <main+0x1a4>
		p_dy = 4;
    11c4:	li	a6,4
    11c8:	j	6fc <main+0x1a4>
	else if((paddle->id == 2) && ((swt_val & 1) == 1)) {
    11cc:	andi	a5,a5,1
    11d0:	beqz	a5,69c <main+0x144>
		p_dy = 4;
    11d4:	li	a6,4
    11d8:	j	69c <main+0x144>
	if((paddle->id == 1) && (swt_val >> 15 == 1)) {
    11dc:	srai	a2,a5,0xf
		p_dy = 4;
    11e0:	li	a6,4
	if((paddle->id == 1) && (swt_val >> 15 == 1)) {
    11e4:	bne	a2,t3,690 <main+0x138>
    11e8:	j	69c <main+0x144>
    11ec:	srai	a2,a5,0xf
		p_dy = 4;
    11f0:	li	a6,4
	if((paddle->id == 1) && (swt_val >> 15 == 1)) {
    11f4:	bne	a2,t3,6f0 <main+0x198>
    11f8:	j	6fc <main+0x1a4>
		draw_vertical_line(paddle->x, paddle->y, paddle->y + paddle->w, BG_COLOR); // Clear this paddle
    11fc:	lw	s6,1728(gp) # 1418 <paddle1>
    1200:	lw	a2,4(a7)
    1204:	lw	a5,4(a7)
    1208:	lw	a1,8(a7)
    120c:	add	a5,a5,a1
	toY++;
    1210:	addi	a5,a5,1
	for (; Y != toY; Y++) {
    1214:	beq	a2,a5,1230 <__global_pointer$+0x4d8>
	*VG_ADDR = (Y << 7) | X;  // store into the address IO register
    1218:	slli	a1,a2,0x7
    121c:	or	a1,a1,s6
    1220:	sw	a1,0(a4)
	*VG_COLOR = color;  // store into the color IO register, which triggers
    1224:	sw	zero,0(a3)
	for (; Y != toY; Y++) {
    1228:	addi	a2,a2,1
    122c:	bne	a2,a5,1218 <__global_pointer$+0x4c0>
		if((paddle->y - p_dy) >= 0) {
    1230:	lw	a5,4(a7)
    1234:	sub	a5,a5,a6
    1238:	bltz	a5,1314 <__global_pointer$+0x5bc>
			paddle->y = paddle->y - p_dy;	
    123c:	lw	a5,4(a7)
    1240:	sub	a6,a5,a6
    1244:	sw	a6,4(a7)
    1248:	j	6ac <main+0x154>
		draw_vertical_line(paddle->x, paddle->y, paddle->y + paddle->w, BG_COLOR); // Clear this paddle
    124c:	lw	s6,1760(gp) # 1438 <paddle2>
    1250:	lw	a2,4(t1)
    1254:	lw	a5,4(t1)
    1258:	lw	a1,8(t1)
    125c:	add	a5,a5,a1
	toY++;
    1260:	addi	a5,a5,1
	for (; Y != toY; Y++) {
    1264:	beq	a2,a5,1280 <__global_pointer$+0x528>
	*VG_ADDR = (Y << 7) | X;  // store into the address IO register
    1268:	slli	a1,a2,0x7
    126c:	or	a1,a1,s6
    1270:	sw	a1,0(a4)
	*VG_COLOR = color;  // store into the color IO register, which triggers
    1274:	sw	zero,0(a3)
	for (; Y != toY; Y++) {
    1278:	addi	a2,a2,1
    127c:	bne	a2,a5,1268 <__global_pointer$+0x510>
		if((paddle->y - p_dy) >= 0) {
    1280:	lw	a5,4(t1)
    1284:	sub	a5,a5,a6
    1288:	bltz	a5,1404 <__global_pointer$+0x6ac>
			paddle->y = paddle->y - p_dy;	
    128c:	lw	a5,4(t1)
    1290:	sub	a6,a5,a6
    1294:	sw	a6,4(t1)
    1298:	j	70c <main+0x1b4>
		if(hit_location == 2) b->dy = -(b->dy);	// Hit the center
    129c:	bne	a5,t6,12f0 <__global_pointer$+0x598>
    12a0:	lw	a5,12(s1)
    12a4:	neg	a5,a5
    12a8:	sw	a5,12(s1)
		if(hit_location == 4) b->dy = -3;	//Hit the Very Bottom
    12ac:	j	920 <main+0x3c8>
	*VG_ADDR = (Y << 7) | X;  // store into the address IO register
    12b0:	addi	s8,a5,-1100
    12b4:	sw	s8,0(a3)
	*VG_COLOR = color;  // store into the color IO register, which triggers
    12b8:	sw	a1,0(a4)
	*VG_ADDR = (Y << 7) | X;  // store into the address IO register
    12bc:	addi	s8,a5,-972
    12c0:	sw	s8,0(a3)
	*VG_COLOR = color;  // store into the color IO register, which triggers
    12c4:	sw	a1,0(a4)
	*VG_ADDR = (Y << 7) | X;  // store into the address IO register
    12c8:	addi	s8,a5,-844
    12cc:	sw	s8,0(a3)
	*VG_COLOR = color;  // store into the color IO register, which triggers
    12d0:	sw	a1,0(a4)
	*VG_ADDR = (Y << 7) | X;  // store into the address IO register
    12d4:	addi	s8,a5,-716
    12d8:	sw	s8,0(a3)
	*VG_COLOR = color;  // store into the color IO register, which triggers
    12dc:	sw	a1,0(a4)
	*VG_ADDR = (Y << 7) | X;  // store into the address IO register
    12e0:	addi	s8,a5,-588
    12e4:	sw	s8,0(a3)
	*VG_COLOR = color;  // store into the color IO register, which triggers
    12e8:	sw	a1,0(a4)
    12ec:	j	9d4 <main+0x47c>
		if(hit_location == 3) b->dy = -2;
    12f0:	li	a2,3
    12f4:	bne	a5,a2,1304 <__global_pointer$+0x5ac>
    12f8:	li	a5,-2
    12fc:	sw	a5,12(s1)
		if(hit_location == 4) b->dy = -3;	//Hit the Very Bottom
    1300:	j	920 <main+0x3c8>
    1304:	bne	a5,s4,920 <main+0x3c8>
    1308:	li	a5,-3
    130c:	sw	a5,12(s1)
    1310:	j	920 <main+0x3c8>
			paddle->y = 0;
    1314:	sw	zero,4(a7)
    1318:	j	6ac <main+0x154>
			paddle->y = 55;
    131c:	sw	s2,4(a7)
    1320:	j	6ac <main+0x154>
    1324:	sw	s2,4(t1)
    1328:	j	70c <main+0x1b4>
		paddle1.score += 1;
    132c:	lw	a5,24(a7)
    1330:	li	a6,0
	for (; X != toX; X++) {
    1334:	li	s6,80
		paddle1.score += 1;
    1338:	addi	a5,a5,1
    133c:	sw	a5,24(a7)
	*VG_ADDR = (Y << 7) | X;  // store into the address IO register
    1340:	li	a5,0
    1344:	or	a2,a6,a5
    1348:	sw	a2,0(a4)
	*VG_COLOR = color;  // store into the color IO register, which triggers
    134c:	sw	zero,0(a3)
	for (; X != toX; X++) {
    1350:	addi	a5,a5,1
    1354:	bne	a5,s6,1344 <__global_pointer$+0x5ec>
    1358:	addi	a6,a6,128
	for (int Y = 0; Y != 60; Y++) {
    135c:	bne	a6,ra,1340 <__global_pointer$+0x5e8>
	*SSEG_ADDR1 = paddle1.score;
    1360:	lw	a2,24(a7)
    1364:	lui	a5,0x110c0
    1368:	sw	a2,0(a5) # 110c0000 <__sp+0x110b0000>
	*SSEG_ADDR2 = paddle2.score; //---------------------------------------------------
    136c:	lw	a6,24(t1)
    1370:	lui	a2,0x111c0
	paddle1.y = 29;			// Middle of the screen
    1374:	li	a5,29
	*SSEG_ADDR2 = paddle2.score; //---------------------------------------------------
    1378:	sw	a6,0(a2) # 111c0000 <__sp+0x111b0000>
	paddle1.x = 0;			// Left of the screen
    137c:	sw	zero,1728(gp) # 1418 <paddle1>
	paddle1.y = 29;			// Middle of the screen
    1380:	sw	a5,4(a7)
	paddle1.w = 4;
    1384:	sw	s4,8(a7)
	paddle1.up_btn = 0b01000;	// Top Button
    1388:	li	a2,8
    138c:	sw	a2,16(a7)
	paddle1.down_btn = 0b00001;	// Bottom Button
    1390:	sw	t3,20(a7)
	paddle1.id = 1;
    1394:	sw	t3,28(a7)
	paddle2.x = 79;			// Right of the screen
    1398:	li	a2,79
    139c:	sw	a2,1760(gp) # 1438 <paddle2>
	paddle2.y = 29;			// Middle of the screen
    13a0:	sw	a5,4(t1)
	paddle2.w = 4;
    13a4:	sw	s4,8(t1)
	paddle2.up_btn = 0b00100; 	// Left Button
    13a8:	sw	s4,16(t1)
	paddle2.down_btn = 0b00010;	// Right Button
    13ac:	sw	t6,20(t1)
	paddle2.id = 2;
    13b0:	sw	t6,28(t1)
	ball.x = 39;
    13b4:	li	a2,39
    13b8:	sw	a2,1792(gp) # 1458 <ball>
	ball.y = 29;
    13bc:	sw	a5,4(s1)
	ball.dy = -1;
    13c0:	li	a5,-1
    13c4:	sw	a5,12(s1)
    13c8:	j	92c <main+0x3d4>
		paddle2.score += 1;
    13cc:	lw	a5,24(t1)
    13d0:	li	a6,0
	for (; X != toX; X++) {
    13d4:	li	s6,80
		paddle2.score += 1;
    13d8:	addi	a5,a5,1
    13dc:	sw	a5,24(t1)
	*VG_ADDR = (Y << 7) | X;  // store into the address IO register
    13e0:	li	a5,0
    13e4:	or	a2,a6,a5
    13e8:	sw	a2,0(a4)
	*VG_COLOR = color;  // store into the color IO register, which triggers
    13ec:	sw	zero,0(a3)
	for (; X != toX; X++) {
    13f0:	addi	a5,a5,1
    13f4:	bne	a5,s6,13e4 <__global_pointer$+0x68c>
    13f8:	addi	a6,a6,128
	for (int Y = 0; Y != 60; Y++) {
    13fc:	bne	a6,ra,13e0 <__global_pointer$+0x688>
    1400:	j	1360 <__global_pointer$+0x608>
			paddle->y = 0;
    1404:	sw	zero,4(t1)
    1408:	j	70c <main+0x1b4>
	if(b->y < p->y-1) return 0;	// returns 0 if ball is above the paddle
    140c:	lw	a5,4(s1)
    1410:	lw	a5,4(t1)
    1414:	j	904 <main+0x3ac>
